# SymbolsHelper-Confirmed: 17.12.1
libKF5PimTextEdit.so.5abi1 libkf5pimtextedit5abi1 #MINVER#
 ABI_5_1@ABI_5_1 17.12.1
 (optional=templinst)_ZN12KConfigGroup10writeEntryIiEEvPKcRKT_6QFlagsIN11KConfigBase15WriteConfigFlagEE@ABI_5_1 17.12.1
 _ZN12KPIMTextEdit10EditorUtilC1Ev@ABI_5_1 17.12.1
 _ZN12KPIMTextEdit10EditorUtilC2Ev@ABI_5_1 17.12.1
 _ZN12KPIMTextEdit12TextToSpeech11qt_metacallEN11QMetaObject4CallEiPPv@ABI_5_1 17.12.1
 _ZN12KPIMTextEdit12TextToSpeech11qt_metacastEPKc@ABI_5_1 17.12.1
 _ZN12KPIMTextEdit12TextToSpeech12stateChangedENS0_5StateE@ABI_5_1 17.12.1
 _ZN12KPIMTextEdit12TextToSpeech14reloadSettingsEv@ABI_5_1 17.12.1
 _ZN12KPIMTextEdit12TextToSpeech16slotStateChangedEv@ABI_5_1 17.12.1
 _ZN12KPIMTextEdit12TextToSpeech16staticMetaObjectE@ABI_5_1 17.12.1
 _ZN12KPIMTextEdit12TextToSpeech3sayERK7QString@ABI_5_1 17.12.1
 _ZN12KPIMTextEdit12TextToSpeech4selfEv@ABI_5_1 17.12.1
 _ZN12KPIMTextEdit12TextToSpeech4stopEv@ABI_5_1 17.12.1
 _ZN12KPIMTextEdit12TextToSpeech5pauseEv@ABI_5_1 17.12.1
 _ZN12KPIMTextEdit12TextToSpeech6resumeEv@ABI_5_1 17.12.1
 _ZN12KPIMTextEdit12TextToSpeech7setRateEd@ABI_5_1 17.12.1
 _ZN12KPIMTextEdit12TextToSpeech8setPitchEd@ABI_5_1 17.12.1
 _ZN12KPIMTextEdit12TextToSpeech9setVolumeEi@ABI_5_1 17.12.1
 _ZN12KPIMTextEdit12TextToSpeechC1EP7QObject@ABI_5_1 17.12.1
 _ZN12KPIMTextEdit12TextToSpeechC2EP7QObject@ABI_5_1 17.12.1
 _ZN12KPIMTextEdit12TextToSpeechD0Ev@ABI_5_1 17.12.1
 _ZN12KPIMTextEdit12TextToSpeechD1Ev@ABI_5_1 17.12.1
 _ZN12KPIMTextEdit12TextToSpeechD2Ev@ABI_5_1 17.12.1
 _ZN12KPIMTextEdit14RichTextEditor10wheelEventEP11QWheelEvent@ABI_5_1 17.12.1
 _ZN12KPIMTextEdit14RichTextEditor11qt_metacallEN11QMetaObject4CallEiPPv@ABI_5_1 17.12.1
 _ZN12KPIMTextEdit14RichTextEditor11qt_metacastEPKc@ABI_5_1 17.12.1
 _ZN12KPIMTextEdit14RichTextEditor11replaceTextEv@ABI_5_1 17.12.1
 _ZN12KPIMTextEdit14RichTextEditor11setReadOnlyEb@ABI_5_1 17.12.1
 _ZN12KPIMTextEdit14RichTextEditor12focusInEventEP11QFocusEvent@ABI_5_1 17.12.1
 _ZN12KPIMTextEdit14RichTextEditor12slotAllowTabEv@ABI_5_1 17.12.1
 _ZN12KPIMTextEdit14RichTextEditor13checkSpellingEb@ABI_5_1 17.12.1
 _ZN12KPIMTextEdit14RichTextEditor13highlightWordEii@ABI_5_1 17.12.1
 _ZN12KPIMTextEdit14RichTextEditor13keyPressEventEP9QKeyEvent@ABI_5_1 17.12.1
 _ZN12KPIMTextEdit14RichTextEditor13slotSpeakTextEv@ABI_5_1 17.12.1
 _ZN12KPIMTextEdit14RichTextEditor13slotZoomResetEv@ABI_5_1 17.12.1
 _ZN12KPIMTextEdit14RichTextEditor14addIgnoreWordsERK11QStringList@ABI_5_1 17.12.1
 _ZN12KPIMTextEdit14RichTextEditor14clearDecoratorEv@ABI_5_1 17.12.1
 _ZN12KPIMTextEdit14RichTextEditor14deleteWordBackEv@ABI_5_1 17.12.1
 _ZN12KPIMTextEdit14RichTextEditor14handleShortcutEP9QKeyEvent@ABI_5_1 17.12.1
 _ZN12KPIMTextEdit14RichTextEditor14mousePopupMenuE6QPoint@ABI_5_1 17.12.1
 _ZN12KPIMTextEdit14RichTextEditor14setHighlighterEPN6Sonnet11HighlighterE@ABI_5_1 17.12.1
 _ZN12KPIMTextEdit14RichTextEditor15languageChangedERK7QString@ABI_5_1 17.12.1
 _ZN12KPIMTextEdit14RichTextEditor16contextMenuEventEP17QContextMenuEvent@ABI_5_1 17.12.1
 _ZN12KPIMTextEdit14RichTextEditor16overrideShortcutEP9QKeyEvent@ABI_5_1 17.12.1
 _ZN12KPIMTextEdit14RichTextEditor16setSearchSupportEb@ABI_5_1 17.12.1
 _ZN12KPIMTextEdit14RichTextEditor16spellCheckStatusERK7QString@ABI_5_1 17.12.1
 _ZN12KPIMTextEdit14RichTextEditor16staticMetaObjectE@ABI_5_1 17.12.1
 _ZN12KPIMTextEdit14RichTextEditor17addExtraMenuEntryEP5QMenu6QPoint@ABI_5_1 17.12.1
 _ZN12KPIMTextEdit14RichTextEditor17createHighlighterEv@ABI_5_1 17.12.1
 _ZN12KPIMTextEdit14RichTextEditor17deleteWordForwardEv@ABI_5_1 17.12.1
 _ZN12KPIMTextEdit14RichTextEditor17slotCheckSpellingEv@ABI_5_1 17.12.1
 _ZN12KPIMTextEdit14RichTextEditor17slotUndoableClearEv@ABI_5_1 17.12.1
 _ZN12KPIMTextEdit14RichTextEditor17updateHighLighterEv@ABI_5_1 17.12.1
 _ZN12KPIMTextEdit14RichTextEditor18forceSpellCheckingEv@ABI_5_1 17.12.1
 _ZN12KPIMTextEdit14RichTextEditor18setAllowTabSupportEb@ABI_5_1 17.12.1
 _ZN12KPIMTextEdit14RichTextEditor19forceAutoCorrectionEb@ABI_5_1 17.12.1
 _ZN12KPIMTextEdit14RichTextEditor20checkSpellingChangedEb@ABI_5_1 17.12.1
 _ZN12KPIMTextEdit14RichTextEditor20slotLanguageSelectedEv@ABI_5_1 17.12.1
 _ZN12KPIMTextEdit14RichTextEditor21setWebShortcutSupportEb@ABI_5_1 17.12.1
 _ZN12KPIMTextEdit14RichTextEditor21spellCheckingCanceledEv@ABI_5_1 17.12.1
 _ZN12KPIMTextEdit14RichTextEditor21spellCheckingFinishedEv@ABI_5_1 17.12.1
 _ZN12KPIMTextEdit14RichTextEditor22setTextToSpeechSupportEb@ABI_5_1 17.12.1
 _ZN12KPIMTextEdit14RichTextEditor23setActivateLanguageMenuEb@ABI_5_1 17.12.1
 _ZN12KPIMTextEdit14RichTextEditor23setCheckSpellingEnabledEb@ABI_5_1 17.12.1
 _ZN12KPIMTextEdit14RichTextEditor23setSpellCheckingSupportEb@ABI_5_1 17.12.1
 _ZN12KPIMTextEdit14RichTextEditor23spellCheckerAutoCorrectERK7QStringS3_@ABI_5_1 17.12.1
 _ZN12KPIMTextEdit14RichTextEditor24setShowAutoCorrectButtonEb@ABI_5_1 17.12.1
 _ZN12KPIMTextEdit14RichTextEditor24setSpellCheckingLanguageERK7QString@ABI_5_1 17.12.1
 _ZN12KPIMTextEdit14RichTextEditor24slotSpellCheckerCanceledEv@ABI_5_1 17.12.1
 _ZN12KPIMTextEdit14RichTextEditor24slotSpellCheckerFinishedEv@ABI_5_1 17.12.1
 _ZN12KPIMTextEdit14RichTextEditor24slotToggleAutoSpellCheckEv@ABI_5_1 17.12.1
 _ZN12KPIMTextEdit14RichTextEditor25createSpellCheckDecoratorEv@ABI_5_1 17.12.1
 _ZN12KPIMTextEdit14RichTextEditor25slotSpellCheckerCorrectedERK7QStringiS3_@ABI_5_1 17.12.1
 _ZN12KPIMTextEdit14RichTextEditor27addIgnoreWordsToHighLighterEv@ABI_5_1 17.12.1
 _ZN12KPIMTextEdit14RichTextEditor27slotDisplayMessageIndicatorERK7QString@ABI_5_1 17.12.1
 _ZN12KPIMTextEdit14RichTextEditor27slotSpellCheckerAutoCorrectERK7QStringS3_@ABI_5_1 17.12.1
 _ZN12KPIMTextEdit14RichTextEditor27slotSpellCheckerMisspellingERK7QStringi@ABI_5_1 17.12.1
 _ZN12KPIMTextEdit14RichTextEditor30setSpellCheckingConfigFileNameERK7QString@ABI_5_1 17.12.1
 _ZN12KPIMTextEdit14RichTextEditor3sayERK7QString@ABI_5_1 17.12.1
 _ZN12KPIMTextEdit14RichTextEditor5eventEP6QEvent@ABI_5_1 17.12.1
 _ZN12KPIMTextEdit14RichTextEditor8findTextEv@ABI_5_1 17.12.1
 _ZN12KPIMTextEdit14RichTextEditorC1EP7QWidget@ABI_5_1 17.12.1
 _ZN12KPIMTextEdit14RichTextEditorC2EP7QWidget@ABI_5_1 17.12.1
 _ZN12KPIMTextEdit14RichTextEditorD0Ev@ABI_5_1 17.12.1
 _ZN12KPIMTextEdit14RichTextEditorD1Ev@ABI_5_1 17.12.1
 _ZN12KPIMTextEdit14RichTextEditorD2Ev@ABI_5_1 17.12.1
 _ZN12KPIMTextEdit14SlideContainer10setContentEP7QWidget@ABI_5_1 17.12.1
 _ZN12KPIMTextEdit14SlideContainer11eventFilterEP7QObjectP6QEvent@ABI_5_1 17.12.1
 _ZN12KPIMTextEdit14SlideContainer11qt_metacallEN11QMetaObject4CallEiPPv@ABI_5_1 17.12.1
 _ZN12KPIMTextEdit14SlideContainer11qt_metacastEPKc@ABI_5_1 17.12.1
 _ZN12KPIMTextEdit14SlideContainer11resizeEventEP12QResizeEvent@ABI_5_1 17.12.1
 _ZN12KPIMTextEdit14SlideContainer14setSlideHeightEi@ABI_5_1 17.12.1
 _ZN12KPIMTextEdit14SlideContainer16slotAnimFinishedEv@ABI_5_1 17.12.1
 _ZN12KPIMTextEdit14SlideContainer16staticMetaObjectE@ABI_5_1 17.12.1
 _ZN12KPIMTextEdit14SlideContainer21adjustContentGeometryEv@ABI_5_1 17.12.1
 _ZN12KPIMTextEdit14SlideContainer6animToEi@ABI_5_1 17.12.1
 _ZN12KPIMTextEdit14SlideContainer7slideInEv@ABI_5_1 17.12.1
 _ZN12KPIMTextEdit14SlideContainer8slideOutEv@ABI_5_1 17.12.1
 _ZN12KPIMTextEdit14SlideContainer8slidedInEv@ABI_5_1 17.12.1
 _ZN12KPIMTextEdit14SlideContainer9slidedOutEv@ABI_5_1 17.12.1
 _ZN12KPIMTextEdit14SlideContainerC1EP7QWidget@ABI_5_1 17.12.1
 _ZN12KPIMTextEdit14SlideContainerC2EP7QWidget@ABI_5_1 17.12.1
 _ZN12KPIMTextEdit15PlainTextEditor10wheelEventEP11QWheelEvent@ABI_5_1 17.12.1
 _ZN12KPIMTextEdit15PlainTextEditor11qt_metacallEN11QMetaObject4CallEiPPv@ABI_5_1 17.12.1
 _ZN12KPIMTextEdit15PlainTextEditor11qt_metacastEPKc@ABI_5_1 17.12.1
 _ZN12KPIMTextEdit15PlainTextEditor11replaceTextEv@ABI_5_1 17.12.1
 _ZN12KPIMTextEdit15PlainTextEditor11setReadOnlyEb@ABI_5_1 17.12.1
 _ZN12KPIMTextEdit15PlainTextEditor12focusInEventEP11QFocusEvent@ABI_5_1 17.12.1
 _ZN12KPIMTextEdit15PlainTextEditor13highlightWordEii@ABI_5_1 17.12.1
 _ZN12KPIMTextEdit15PlainTextEditor13keyPressEventEP9QKeyEvent@ABI_5_1 17.12.1
 _ZN12KPIMTextEdit15PlainTextEditor13slotSpeakTextEv@ABI_5_1 17.12.1
 _ZN12KPIMTextEdit15PlainTextEditor13slotZoomResetEv@ABI_5_1 17.12.1
 _ZN12KPIMTextEdit15PlainTextEditor14addIgnoreWordsERK11QStringList@ABI_5_1 17.12.1
 _ZN12KPIMTextEdit15PlainTextEditor14clearDecoratorEv@ABI_5_1 17.12.1
 _ZN12KPIMTextEdit15PlainTextEditor14deleteWordBackEv@ABI_5_1 17.12.1
 _ZN12KPIMTextEdit15PlainTextEditor14handleShortcutEP9QKeyEvent@ABI_5_1 17.12.1
 _ZN12KPIMTextEdit15PlainTextEditor14setHighlighterEPN6Sonnet11HighlighterE@ABI_5_1 17.12.1
 _ZN12KPIMTextEdit15PlainTextEditor15languageChangedERK7QString@ABI_5_1 17.12.1
 _ZN12KPIMTextEdit15PlainTextEditor16contextMenuEventEP17QContextMenuEvent@ABI_5_1 17.12.1
 _ZN12KPIMTextEdit15PlainTextEditor16overrideShortcutEP9QKeyEvent@ABI_5_1 17.12.1
 _ZN12KPIMTextEdit15PlainTextEditor16setSearchSupportEb@ABI_5_1 17.12.1
 _ZN12KPIMTextEdit15PlainTextEditor16spellCheckStatusERK7QString@ABI_5_1 17.12.1
 _ZN12KPIMTextEdit15PlainTextEditor16staticMetaObjectE@ABI_5_1 17.12.1
 _ZN12KPIMTextEdit15PlainTextEditor17addExtraMenuEntryEP5QMenu6QPoint@ABI_5_1 17.12.1
 _ZN12KPIMTextEdit15PlainTextEditor17createHighlighterEv@ABI_5_1 17.12.1
 _ZN12KPIMTextEdit15PlainTextEditor17deleteWordForwardEv@ABI_5_1 17.12.1
 _ZN12KPIMTextEdit15PlainTextEditor17slotCheckSpellingEv@ABI_5_1 17.12.1
 _ZN12KPIMTextEdit15PlainTextEditor17slotUndoableClearEv@ABI_5_1 17.12.1
 _ZN12KPIMTextEdit15PlainTextEditor17updateHighLighterEv@ABI_5_1 17.12.1
 _ZN12KPIMTextEdit15PlainTextEditor20checkSpellingChangedEb@ABI_5_1 17.12.1
 _ZN12KPIMTextEdit15PlainTextEditor20slotLanguageSelectedEv@ABI_5_1 17.12.1
 _ZN12KPIMTextEdit15PlainTextEditor21setWebShortcutSupportEb@ABI_5_1 17.12.1
 _ZN12KPIMTextEdit15PlainTextEditor22setTextToSpeechSupportEb@ABI_5_1 17.12.1
 _ZN12KPIMTextEdit15PlainTextEditor23setActivateLanguageMenuEb@ABI_5_1 17.12.1
 _ZN12KPIMTextEdit15PlainTextEditor23setCheckSpellingEnabledEb@ABI_5_1 17.12.1
 _ZN12KPIMTextEdit15PlainTextEditor23setSpellCheckingSupportEb@ABI_5_1 17.12.1
 _ZN12KPIMTextEdit15PlainTextEditor23spellCheckerAutoCorrectERK7QStringS3_@ABI_5_1 17.12.1
 _ZN12KPIMTextEdit15PlainTextEditor24setSpellCheckingLanguageERK7QString@ABI_5_1 17.12.1
 _ZN12KPIMTextEdit15PlainTextEditor24slotSpellCheckerCanceledEv@ABI_5_1 17.12.1
 _ZN12KPIMTextEdit15PlainTextEditor24slotSpellCheckerFinishedEv@ABI_5_1 17.12.1
 _ZN12KPIMTextEdit15PlainTextEditor24slotToggleAutoSpellCheckEv@ABI_5_1 17.12.1
 _ZN12KPIMTextEdit15PlainTextEditor25createSpellCheckDecoratorEv@ABI_5_1 17.12.1
 _ZN12KPIMTextEdit15PlainTextEditor25slotSpellCheckerCorrectedERK7QStringiS3_@ABI_5_1 17.12.1
 _ZN12KPIMTextEdit15PlainTextEditor27addIgnoreWordsToHighLighterEv@ABI_5_1 17.12.1
 _ZN12KPIMTextEdit15PlainTextEditor27slotDisplayMessageIndicatorERK7QString@ABI_5_1 17.12.1
 _ZN12KPIMTextEdit15PlainTextEditor27slotSpellCheckerAutoCorrectERK7QStringS3_@ABI_5_1 17.12.1
 _ZN12KPIMTextEdit15PlainTextEditor27slotSpellCheckerMisspellingERK7QStringi@ABI_5_1 17.12.1
 _ZN12KPIMTextEdit15PlainTextEditor30setSpellCheckingConfigFileNameERK7QString@ABI_5_1 17.12.1
 _ZN12KPIMTextEdit15PlainTextEditor3sayERK7QString@ABI_5_1 17.12.1
 _ZN12KPIMTextEdit15PlainTextEditor5eventEP6QEvent@ABI_5_1 17.12.1
 _ZN12KPIMTextEdit15PlainTextEditor8findTextEv@ABI_5_1 17.12.1
 _ZN12KPIMTextEdit15PlainTextEditorC1EP7QWidget@ABI_5_1 17.12.1
 _ZN12KPIMTextEdit15PlainTextEditorC2EP7QWidget@ABI_5_1 17.12.1
 _ZN12KPIMTextEdit15PlainTextEditorD0Ev@ABI_5_1 17.12.1
 _ZN12KPIMTextEdit15PlainTextEditorD1Ev@ABI_5_1 17.12.1
 _ZN12KPIMTextEdit15PlainTextEditorD2Ev@ABI_5_1 17.12.1
 _ZN12KPIMTextEdit15TableActionMenu11qt_metacallEN11QMetaObject4CallEiPPv@ABI_5_1 17.12.1
 _ZN12KPIMTextEdit15TableActionMenu11qt_metacastEPKc@ABI_5_1 17.12.1
 _ZN12KPIMTextEdit15TableActionMenu15setRichTextModeEb@ABI_5_1 17.12.1
 _ZN12KPIMTextEdit15TableActionMenu16staticMetaObjectE@ABI_5_1 17.12.1
 _ZN12KPIMTextEdit15TableActionMenuC1EP9QTextEdit@ABI_5_1 17.12.1
 _ZN12KPIMTextEdit15TableActionMenuC2EP9QTextEdit@ABI_5_1 17.12.1
 _ZN12KPIMTextEdit15TableActionMenuD0Ev@ABI_5_1 17.12.1
 _ZN12KPIMTextEdit15TableActionMenuD1Ev@ABI_5_1 17.12.1
 _ZN12KPIMTextEdit15TableActionMenuD2Ev@ABI_5_1 17.12.1
 _ZN12KPIMTextEdit16InsertHtmlDialog11qt_metacallEN11QMetaObject4CallEiPPv@ABI_5_1 17.12.1
 _ZN12KPIMTextEdit16InsertHtmlDialog11qt_metacastEPKc@ABI_5_1 17.12.1
 _ZN12KPIMTextEdit16InsertHtmlDialog15setSelectedTextERK7QString@ABI_5_1 17.12.1
 _ZN12KPIMTextEdit16InsertHtmlDialog16staticMetaObjectE@ABI_5_1 17.12.1
 _ZN12KPIMTextEdit16InsertHtmlDialogC1EP7QWidget@ABI_5_1 17.12.1
 _ZN12KPIMTextEdit16InsertHtmlDialogC2EP7QWidget@ABI_5_1 17.12.1
 _ZN12KPIMTextEdit16InsertHtmlDialogD0Ev@ABI_5_1 17.12.1
 _ZN12KPIMTextEdit16InsertHtmlDialogD1Ev@ABI_5_1 17.12.1
 _ZN12KPIMTextEdit16InsertHtmlDialogD2Ev@ABI_5_1 17.12.1
 _ZN12KPIMTextEdit16RichTextComposer10smartQuoteERK7QString@ABI_5_1 17.12.1
 _ZN12KPIMTextEdit16RichTextComposer11qt_metacallEN11QMetaObject4CallEiPPv@ABI_5_1 17.12.1
 _ZN12KPIMTextEdit16RichTextComposer11qt_metacastEPKc@ABI_5_1 17.12.1
 _ZN12KPIMTextEdit16RichTextComposer13createActionsEP17KActionCollection@ABI_5_1 17.12.1
 _ZN12KPIMTextEdit16RichTextComposer13keyPressEventEP9QKeyEvent@ABI_5_1 17.12.1
 _ZN12KPIMTextEdit16RichTextComposer13setTextOrHtmlERK7QString@ABI_5_1 17.12.1
 _ZN12KPIMTextEdit16RichTextComposer14clearDecoratorEv@ABI_5_1 17.12.1
 _ZN12KPIMTextEdit16RichTextComposer14enableWordWrapEi@ABI_5_1 17.12.1
 _ZN12KPIMTextEdit16RichTextComposer15disableWordWrapEv@ABI_5_1 17.12.1
 _ZN12KPIMTextEdit16RichTextComposer15processKeyEventEP9QKeyEvent@ABI_5_1 17.12.1
 _ZN12KPIMTextEdit16RichTextComposer15textModeChangedENS0_4ModeE@ABI_5_1 17.12.1
 _ZN12KPIMTextEdit16RichTextComposer16activateRichTextEv@ABI_5_1 17.12.1
 _ZN12KPIMTextEdit16RichTextComposer16setEnableActionsEb@ABI_5_1 17.12.1
 _ZN12KPIMTextEdit16RichTextComposer16staticMetaObjectE@ABI_5_1 17.12.1
 _ZN12KPIMTextEdit16RichTextComposer17createHighlighterEv@ABI_5_1 17.12.1
 _ZN12KPIMTextEdit16RichTextComposer17insertModeChangedEv@ABI_5_1 17.12.1
 _ZN12KPIMTextEdit16RichTextComposer17mouseReleaseEventEP11QMouseEvent@ABI_5_1 17.12.1
 _ZN12KPIMTextEdit16RichTextComposer17switchToPlainTextEv@ABI_5_1 17.12.1
 _ZN12KPIMTextEdit16RichTextComposer17updateHighLighterEv@ABI_5_1 17.12.1
 _ZN12KPIMTextEdit16RichTextComposer18insertFromMimeDataEPK9QMimeData@ABI_5_1 17.12.1
 _ZN12KPIMTextEdit16RichTextComposer18killExternalEditorEv@ABI_5_1 17.12.1
 _ZN12KPIMTextEdit16RichTextComposer18setQuotePrefixNameERK7QString@ABI_5_1 17.12.1
 _ZN12KPIMTextEdit16RichTextComposer19evaluateListSupportEP9QKeyEvent@ABI_5_1 17.12.1
 _ZN12KPIMTextEdit16RichTextComposer19slotTextModeChangedENS0_4ModeE@ABI_5_1 17.12.1
 _ZN12KPIMTextEdit16RichTextComposer20externalEditorClosedEv@ABI_5_1 17.12.1
 _ZN12KPIMTextEdit16RichTextComposer20forcePlainTextMarkupEb@ABI_5_1 17.12.1
 _ZN12KPIMTextEdit16RichTextComposer20setHighlighterColorsEPNS_37RichTextComposerEmailQuoteHighlighterE@ABI_5_1 17.12.1
 _ZN12KPIMTextEdit16RichTextComposer20setUseExternalEditorEb@ABI_5_1 17.12.1
 _ZN12KPIMTextEdit16RichTextComposer20slotChangeInsertModeEv@ABI_5_1 17.12.1
 _ZN12KPIMTextEdit16RichTextComposer21externalEditorStartedEv@ABI_5_1 17.12.1
 _ZN12KPIMTextEdit16RichTextComposer21processAutoCorrectionEP9QKeyEvent@ABI_5_1 17.12.1
 _ZN12KPIMTextEdit16RichTextComposer21setExternalEditorPathERK7QString@ABI_5_1 17.12.1
 _ZN12KPIMTextEdit16RichTextComposer24evaluateReturnKeySupportEP9QKeyEvent@ABI_5_1 17.12.1
 _ZN12KPIMTextEdit16RichTextComposer25createSpellCheckDecoratorEv@ABI_5_1 17.12.1
 _ZN12KPIMTextEdit16RichTextComposer26setCursorPositionFromStartEj@ABI_5_1 17.12.1
 _ZN12KPIMTextEdit16RichTextComposer27checkExternalEditorFinishedEv@ABI_5_1 17.12.1
 _ZN12KPIMTextEdit16RichTextComposer29insertPlainTextImplementationEv@ABI_5_1 17.12.1
 _ZN12KPIMTextEdit16RichTextComposer7focusUpEv@ABI_5_1 17.12.1
 _ZN12KPIMTextEdit16RichTextComposerC1EP7QWidget@ABI_5_1 17.12.1
 _ZN12KPIMTextEdit16RichTextComposerC2EP7QWidget@ABI_5_1 17.12.1
 _ZN12KPIMTextEdit16RichTextComposerD0Ev@ABI_5_1 17.12.1
 _ZN12KPIMTextEdit16RichTextComposerD1Ev@ABI_5_1 17.12.1
 _ZN12KPIMTextEdit16RichTextComposerD2Ev@ABI_5_1 17.12.1
 _ZN12KPIMTextEdit17InsertImageDialog11qt_metacallEN11QMetaObject4CallEiPPv@ABI_5_1 17.12.1
 _ZN12KPIMTextEdit17InsertImageDialog11qt_metacastEPKc@ABI_5_1 17.12.1
 _ZN12KPIMTextEdit17InsertImageDialog11setImageUrlERK4QUrl@ABI_5_1 17.12.1
 _ZN12KPIMTextEdit17InsertImageDialog13setImageWidthEi@ABI_5_1 17.12.1
 _ZN12KPIMTextEdit17InsertImageDialog14setImageHeightEi@ABI_5_1 17.12.1
 _ZN12KPIMTextEdit17InsertImageDialog16staticMetaObjectE@ABI_5_1 17.12.1
 _ZN12KPIMTextEdit17InsertImageDialogC1EP7QWidget@ABI_5_1 17.12.1
 _ZN12KPIMTextEdit17InsertImageDialogC2EP7QWidget@ABI_5_1 17.12.1
 _ZN12KPIMTextEdit17InsertImageDialogD0Ev@ABI_5_1 17.12.1
 _ZN12KPIMTextEdit17InsertImageDialogD1Ev@ABI_5_1 17.12.1
 _ZN12KPIMTextEdit17InsertImageDialogD2Ev@ABI_5_1 17.12.1
 _ZN12KPIMTextEdit17InsertImageWidget11qt_metacallEN11QMetaObject4CallEiPPv@ABI_5_1 17.12.1
 _ZN12KPIMTextEdit17InsertImageWidget11qt_metacastEPKc@ABI_5_1 17.12.1
 _ZN12KPIMTextEdit17InsertImageWidget11setImageUrlERK4QUrl@ABI_5_1 17.12.1
 _ZN12KPIMTextEdit17InsertImageWidget13setImageWidthEi@ABI_5_1 17.12.1
 _ZN12KPIMTextEdit17InsertImageWidget14enableButtonOkEb@ABI_5_1 17.12.1
 _ZN12KPIMTextEdit17InsertImageWidget14setImageHeightEi@ABI_5_1 17.12.1
 _ZN12KPIMTextEdit17InsertImageWidget16staticMetaObjectE@ABI_5_1 17.12.1
 _ZN12KPIMTextEdit17InsertImageWidgetC1EP7QWidget@ABI_5_1 17.12.1
 _ZN12KPIMTextEdit17InsertImageWidgetC2EP7QWidget@ABI_5_1 17.12.1
 _ZN12KPIMTextEdit17InsertImageWidgetD0Ev@ABI_5_1 17.12.1
 _ZN12KPIMTextEdit17InsertImageWidgetD1Ev@ABI_5_1 17.12.1
 _ZN12KPIMTextEdit17InsertImageWidgetD2Ev@ABI_5_1 17.12.1
 _ZN12KPIMTextEdit17InsertTableDialog10setColumnsEi@ABI_5_1 17.12.1
 _ZN12KPIMTextEdit17InsertTableDialog11qt_metacallEN11QMetaObject4CallEiPPv@ABI_5_1 17.12.1
 _ZN12KPIMTextEdit17InsertTableDialog11qt_metacastEPKc@ABI_5_1 17.12.1
 _ZN12KPIMTextEdit17InsertTableDialog15setTypeOfLengthEN11QTextLength4TypeE@ABI_5_1 17.12.1
 _ZN12KPIMTextEdit17InsertTableDialog16staticMetaObjectE@ABI_5_1 17.12.1
 _ZN12KPIMTextEdit17InsertTableDialog7setRowsEi@ABI_5_1 17.12.1
 _ZN12KPIMTextEdit17InsertTableDialog9setBorderEi@ABI_5_1 17.12.1
 _ZN12KPIMTextEdit17InsertTableDialog9setLengthEi@ABI_5_1 17.12.1
 _ZN12KPIMTextEdit17InsertTableDialogC1EP7QWidget@ABI_5_1 17.12.1
 _ZN12KPIMTextEdit17InsertTableDialogC2EP7QWidget@ABI_5_1 17.12.1
 _ZN12KPIMTextEdit17InsertTableDialogD0Ev@ABI_5_1 17.12.1
 _ZN12KPIMTextEdit17InsertTableDialogD1Ev@ABI_5_1 17.12.1
 _ZN12KPIMTextEdit17InsertTableDialogD2Ev@ABI_5_1 17.12.1
 _ZN12KPIMTextEdit17InsertTableWidget10setColumnsEi@ABI_5_1 17.12.1
 _ZN12KPIMTextEdit17InsertTableWidget11qt_metacallEN11QMetaObject4CallEiPPv@ABI_5_1 17.12.1
 _ZN12KPIMTextEdit17InsertTableWidget11qt_metacastEPKc@ABI_5_1 17.12.1
 _ZN12KPIMTextEdit17InsertTableWidget15setTypeOfLengthEN11QTextLength4TypeE@ABI_5_1 17.12.1
 _ZN12KPIMTextEdit17InsertTableWidget16staticMetaObjectE@ABI_5_1 17.12.1
 _ZN12KPIMTextEdit17InsertTableWidget23slotTypeOfLengthChangedEi@ABI_5_1 17.12.1
 _ZN12KPIMTextEdit17InsertTableWidget7setRowsEi@ABI_5_1 17.12.1
 _ZN12KPIMTextEdit17InsertTableWidget9setBorderEi@ABI_5_1 17.12.1
 _ZN12KPIMTextEdit17InsertTableWidget9setLengthEi@ABI_5_1 17.12.1
 _ZN12KPIMTextEdit17InsertTableWidgetC1EP7QWidget@ABI_5_1 17.12.1
 _ZN12KPIMTextEdit17InsertTableWidgetC2EP7QWidget@ABI_5_1 17.12.1
 _ZN12KPIMTextEdit17InsertTableWidgetD0Ev@ABI_5_1 17.12.1
 _ZN12KPIMTextEdit17InsertTableWidgetD1Ev@ABI_5_1 17.12.1
 _ZN12KPIMTextEdit17InsertTableWidgetD2Ev@ABI_5_1 17.12.1
 _ZN12KPIMTextEdit17TableFormatDialog10setColumnsEi@ABI_5_1 17.12.1
 _ZN12KPIMTextEdit17TableFormatDialog10setPaddingEi@ABI_5_1 17.12.1
 _ZN12KPIMTextEdit17TableFormatDialog10setSpacingEi@ABI_5_1 17.12.1
 _ZN12KPIMTextEdit17TableFormatDialog11qt_metacallEN11QMetaObject4CallEiPPv@ABI_5_1 17.12.1
 _ZN12KPIMTextEdit17TableFormatDialog11qt_metacastEPKc@ABI_5_1 17.12.1
 _ZN12KPIMTextEdit17TableFormatDialog12setAlignmentE6QFlagsIN2Qt13AlignmentFlagEE@ABI_5_1 17.12.1
 _ZN12KPIMTextEdit17TableFormatDialog15setTypeOfLengthEN11QTextLength4TypeE@ABI_5_1 17.12.1
 _ZN12KPIMTextEdit17TableFormatDialog16staticMetaObjectE@ABI_5_1 17.12.1
 _ZN12KPIMTextEdit17TableFormatDialog23setTableBackgroundColorERK6QColor@ABI_5_1 17.12.1
 _ZN12KPIMTextEdit17TableFormatDialog7setRowsEi@ABI_5_1 17.12.1
 _ZN12KPIMTextEdit17TableFormatDialog9setBorderEi@ABI_5_1 17.12.1
 _ZN12KPIMTextEdit17TableFormatDialog9setLengthEi@ABI_5_1 17.12.1
 _ZN12KPIMTextEdit17TableFormatDialogC1EP7QWidget@ABI_5_1 17.12.1
 _ZN12KPIMTextEdit17TableFormatDialogC2EP7QWidget@ABI_5_1 17.12.1
 _ZN12KPIMTextEdit17TableFormatDialogD0Ev@ABI_5_1 17.12.1
 _ZN12KPIMTextEdit17TableFormatDialogD1Ev@ABI_5_1 17.12.1
 _ZN12KPIMTextEdit17TableFormatDialogD2Ev@ABI_5_1 17.12.1
 _ZN12KPIMTextEdit18TextGoToLineWidget10moveToLineEi@ABI_5_1 17.12.1
 _ZN12KPIMTextEdit18TextGoToLineWidget11qt_metacallEN11QMetaObject4CallEiPPv@ABI_5_1 17.12.1
 _ZN12KPIMTextEdit18TextGoToLineWidget11qt_metacastEPKc@ABI_5_1 17.12.1
 _ZN12KPIMTextEdit18TextGoToLineWidget12hideGotoLineEv@ABI_5_1 17.12.1
 _ZN12KPIMTextEdit18TextGoToLineWidget12slotCloseBarEv@ABI_5_1 17.12.1
 _ZN12KPIMTextEdit18TextGoToLineWidget12slotGoToLineEv@ABI_5_1 17.12.1
 _ZN12KPIMTextEdit18TextGoToLineWidget16staticMetaObjectE@ABI_5_1 17.12.1
 _ZN12KPIMTextEdit18TextGoToLineWidget19setMaximumLineCountEi@ABI_5_1 17.12.1
 _ZN12KPIMTextEdit18TextGoToLineWidget21slotBlockCountChangedEi@ABI_5_1 17.12.1
 _ZN12KPIMTextEdit18TextGoToLineWidget5eventEP6QEvent@ABI_5_1 17.12.1
 _ZN12KPIMTextEdit18TextGoToLineWidget8goToLineEv@ABI_5_1 17.12.1
 _ZN12KPIMTextEdit18TextGoToLineWidget9showEventEP10QShowEvent@ABI_5_1 17.12.1
 _ZN12KPIMTextEdit18TextGoToLineWidgetC1EP7QWidget@ABI_5_1 17.12.1
 _ZN12KPIMTextEdit18TextGoToLineWidgetC2EP7QWidget@ABI_5_1 17.12.1
 _ZN12KPIMTextEdit18TextGoToLineWidgetD0Ev@ABI_5_1 17.12.1
 _ZN12KPIMTextEdit18TextGoToLineWidgetD1Ev@ABI_5_1 17.12.1
 _ZN12KPIMTextEdit18TextGoToLineWidgetD2Ev@ABI_5_1 17.12.1
 _ZN12KPIMTextEdit18TextToSpeechWidget11qt_metacallEN11QMetaObject4CallEiPPv@ABI_5_1 17.12.1
 _ZN12KPIMTextEdit18TextToSpeechWidget11qt_metacastEPKc@ABI_5_1 17.12.1
 _ZN12KPIMTextEdit18TextToSpeechWidget12stateChangedENS0_5StateE@ABI_5_1 17.12.1
 _ZN12KPIMTextEdit18TextToSpeechWidget13slotConfigureEv@ABI_5_1 17.12.1
 _ZN12KPIMTextEdit18TextToSpeechWidget16slotStateChangedENS_12TextToSpeech5StateE@ABI_5_1 17.12.1
 _ZN12KPIMTextEdit18TextToSpeechWidget16staticMetaObjectE@ABI_5_1 17.12.1
 _ZN12KPIMTextEdit18TextToSpeechWidget17slotVolumeChangedEi@ABI_5_1 17.12.1
 _ZN12KPIMTextEdit18TextToSpeechWidget24setTextToSpeechInterfaceEPNS_29AbstractTextToSpeechInterfaceE@ABI_5_1 17.12.1
 _ZN12KPIMTextEdit18TextToSpeechWidget3sayERK7QString@ABI_5_1 17.12.1
 _ZN12KPIMTextEdit18TextToSpeechWidget8setStateENS0_5StateE@ABI_5_1 17.12.1
 _ZN12KPIMTextEdit18TextToSpeechWidgetC1EP7QWidget@ABI_5_1 17.12.1
 _ZN12KPIMTextEdit18TextToSpeechWidgetC2EP7QWidget@ABI_5_1 17.12.1
 _ZN12KPIMTextEdit18TextToSpeechWidgetD0Ev@ABI_5_1 17.12.1
 _ZN12KPIMTextEdit18TextToSpeechWidgetD1Ev@ABI_5_1 17.12.1
 _ZN12KPIMTextEdit18TextToSpeechWidgetD2Ev@ABI_5_1 17.12.1
 _ZN12KPIMTextEdit19RichTextEditFindBar11qt_metacallEN11QMetaObject4CallEiPPv@ABI_5_1 17.12.1
 _ZN12KPIMTextEdit19RichTextEditFindBar11qt_metacastEPKc@ABI_5_1 17.12.1
 _ZN12KPIMTextEdit19RichTextEditFindBar14slotSearchTextEbb@ABI_5_1 17.12.1
 _ZN12KPIMTextEdit19RichTextEditFindBar15slotReplaceTextEv@ABI_5_1 17.12.1
 _ZN12KPIMTextEdit19RichTextEditFindBar16searchInDocumentERK7QString6QFlagsIN13QTextDocument8FindFlagEE@ABI_5_1 17.12.1
 _ZN12KPIMTextEdit19RichTextEditFindBar16staticMetaObjectE@ABI_5_1 17.12.1
 _ZN12KPIMTextEdit19RichTextEditFindBar18slotReplaceAllTextEv@ABI_5_1 17.12.1
 _ZN12KPIMTextEdit19RichTextEditFindBar20autoSearchMoveCursorEv@ABI_5_1 17.12.1
 _ZN12KPIMTextEdit19RichTextEditFindBarC1EP9QTextEditP7QWidget@ABI_5_1 17.12.1
 _ZN12KPIMTextEdit19RichTextEditFindBarC2EP9QTextEditP7QWidget@ABI_5_1 17.12.1
 _ZN12KPIMTextEdit19RichTextEditFindBarD0Ev@ABI_5_1 17.12.1
 _ZN12KPIMTextEdit19RichTextEditFindBarD1Ev@ABI_5_1 17.12.1
 _ZN12KPIMTextEdit19RichTextEditFindBarD2Ev@ABI_5_1 17.12.1
 _ZN12KPIMTextEdit19TextEditFindBarBase10autoSearchERK7QString@ABI_5_1 17.12.1
 _ZN12KPIMTextEdit19TextEditFindBarBase10searchTextEbb@ABI_5_1 17.12.1
 _ZN12KPIMTextEdit19TextEditFindBarBase11hideFindBarEv@ABI_5_1 17.12.1
 _ZN12KPIMTextEdit19TextEditFindBarBase11messageInfoEbbb@ABI_5_1 17.12.1
 _ZN12KPIMTextEdit19TextEditFindBarBase11qt_metacallEN11QMetaObject4CallEiPPv@ABI_5_1 17.12.1
 _ZN12KPIMTextEdit19TextEditFindBarBase11qt_metacastEPKc@ABI_5_1 17.12.1
 _ZN12KPIMTextEdit19TextEditFindBarBase11showReplaceEv@ABI_5_1 17.12.1
 _ZN12KPIMTextEdit19TextEditFindBarBase15clearSelectionsEv@ABI_5_1 17.12.1
 _ZN12KPIMTextEdit19TextEditFindBarBase15slotClearSearchEv@ABI_5_1 17.12.1
 _ZN12KPIMTextEdit19TextEditFindBarBase16setHideWhenCloseEb@ABI_5_1 17.12.1
 _ZN12KPIMTextEdit19TextEditFindBarBase16staticMetaObjectE@ABI_5_1 17.12.1
 _ZN12KPIMTextEdit19TextEditFindBarBase17focusAndSetCursorEv@ABI_5_1 17.12.1
 _ZN12KPIMTextEdit19TextEditFindBarBase23displayMessageIndicatorERK7QString@ABI_5_1 17.12.1
 _ZN12KPIMTextEdit19TextEditFindBarBase23slotUpdateSearchOptionsEv@ABI_5_1 17.12.1
 _ZN12KPIMTextEdit19TextEditFindBarBase5eventEP6QEvent@ABI_5_1 17.12.1
 _ZN12KPIMTextEdit19TextEditFindBarBase7setTextERK7QString@ABI_5_1 17.12.1
 _ZN12KPIMTextEdit19TextEditFindBarBase8closeBarEv@ABI_5_1 17.12.1
 _ZN12KPIMTextEdit19TextEditFindBarBase8findNextEv@ABI_5_1 17.12.1
 _ZN12KPIMTextEdit19TextEditFindBarBase8findPrevEv@ABI_5_1 17.12.1
 _ZN12KPIMTextEdit19TextEditFindBarBase8showFindEv@ABI_5_1 17.12.1
 _ZN12KPIMTextEdit19TextEditFindBarBaseC1EP7QWidget@ABI_5_1 17.12.1
 _ZN12KPIMTextEdit19TextEditFindBarBaseC2EP7QWidget@ABI_5_1 17.12.1
 _ZN12KPIMTextEdit19TextEditFindBarBaseD0Ev@ABI_5_1 17.12.1
 _ZN12KPIMTextEdit19TextEditFindBarBaseD1Ev@ABI_5_1 17.12.1
 _ZN12KPIMTextEdit19TextEditFindBarBaseD2Ev@ABI_5_1 17.12.1
 _ZN12KPIMTextEdit19TextEditorCompleter11qt_metacallEN11QMetaObject4CallEiPPv@ABI_5_1 17.12.1
 _ZN12KPIMTextEdit19TextEditorCompleter11qt_metacastEPKc@ABI_5_1 17.12.1
 _ZN12KPIMTextEdit19TextEditorCompleter12completeTextEv@ABI_5_1 17.12.1
 _ZN12KPIMTextEdit19TextEditorCompleter14slotCompletionERK7QString@ABI_5_1 17.12.1
 _ZN12KPIMTextEdit19TextEditorCompleter16staticMetaObjectE@ABI_5_1 17.12.1
 _ZN12KPIMTextEdit19TextEditorCompleter22setCompleterStringListERK11QStringList@ABI_5_1 17.12.1
 _ZN12KPIMTextEdit19TextEditorCompleter22setExcludeOfCharactersERK7QString@ABI_5_1 17.12.1
 _ZN12KPIMTextEdit19TextEditorCompleter26TextEditorCompleterPrivate12completeTextEv@ABI_5_1 17.12.1
 _ZN12KPIMTextEdit19TextEditorCompleter26TextEditorCompleterPrivate13setCompletionERK7QString@ABI_5_1 17.12.1
 _ZN12KPIMTextEdit19TextEditorCompleter26TextEditorCompleterPrivate15createCompleterEv@ABI_5_1 17.12.1
 _ZN12KPIMTextEdit19TextEditorCompleterC1EP14QPlainTextEditP7QObject@ABI_5_1 17.12.1
 _ZN12KPIMTextEdit19TextEditorCompleterC1EP9QTextEditP7QObject@ABI_5_1 17.12.1
 _ZN12KPIMTextEdit19TextEditorCompleterC2EP14QPlainTextEditP7QObject@ABI_5_1 17.12.1
 _ZN12KPIMTextEdit19TextEditorCompleterC2EP9QTextEditP7QObject@ABI_5_1 17.12.1
 _ZN12KPIMTextEdit19TextEditorCompleterD0Ev@ABI_5_1 17.12.1
 _ZN12KPIMTextEdit19TextEditorCompleterD1Ev@ABI_5_1 17.12.1
 _ZN12KPIMTextEdit19TextEditorCompleterD2Ev@ABI_5_1 17.12.1
 _ZN12KPIMTextEdit19TextToSpeechActions11qt_metacallEN11QMetaObject4CallEiPPv@ABI_5_1 17.12.1
 _ZN12KPIMTextEdit19TextToSpeechActions11qt_metacastEPKc@ABI_5_1 17.12.1
 _ZN12KPIMTextEdit19TextToSpeechActions12stateChangedENS_18TextToSpeechWidget5StateE@ABI_5_1 17.12.1
 _ZN12KPIMTextEdit19TextToSpeechActions13slotPlayPauseEv@ABI_5_1 17.12.1
 _ZN12KPIMTextEdit19TextToSpeechActions16staticMetaObjectE@ABI_5_1 17.12.1
 _ZN12KPIMTextEdit19TextToSpeechActions8setStateENS_18TextToSpeechWidget5StateE@ABI_5_1 17.12.1
 _ZN12KPIMTextEdit19TextToSpeechActions8slotStopEv@ABI_5_1 17.12.1
 _ZN12KPIMTextEdit19TextToSpeechActionsC1EP7QObject@ABI_5_1 17.12.1
 _ZN12KPIMTextEdit19TextToSpeechActionsC2EP7QObject@ABI_5_1 17.12.1
 _ZN12KPIMTextEdit19TextToSpeechActionsD0Ev@ABI_5_1 17.12.1
 _ZN12KPIMTextEdit19TextToSpeechActionsD1Ev@ABI_5_1 17.12.1
 _ZN12KPIMTextEdit19TextToSpeechActionsD2Ev@ABI_5_1 17.12.1
 _ZN12KPIMTextEdit20PlainTextEditFindBar11qt_metacallEN11QMetaObject4CallEiPPv@ABI_5_1 17.12.1
 _ZN12KPIMTextEdit20PlainTextEditFindBar11qt_metacastEPKc@ABI_5_1 17.12.1
 _ZN12KPIMTextEdit20PlainTextEditFindBar14slotSearchTextEbb@ABI_5_1 17.12.1
 _ZN12KPIMTextEdit20PlainTextEditFindBar15slotReplaceTextEv@ABI_5_1 17.12.1
 _ZN12KPIMTextEdit20PlainTextEditFindBar16searchInDocumentERK7QString6QFlagsIN13QTextDocument8FindFlagEE@ABI_5_1 17.12.1
 _ZN12KPIMTextEdit20PlainTextEditFindBar16staticMetaObjectE@ABI_5_1 17.12.1
 _ZN12KPIMTextEdit20PlainTextEditFindBar18slotReplaceAllTextEv@ABI_5_1 17.12.1
 _ZN12KPIMTextEdit20PlainTextEditFindBar20autoSearchMoveCursorEv@ABI_5_1 17.12.1
 _ZN12KPIMTextEdit20PlainTextEditFindBarC1EP14QPlainTextEditP7QWidget@ABI_5_1 17.12.1
 _ZN12KPIMTextEdit20PlainTextEditFindBarC2EP14QPlainTextEditP7QWidget@ABI_5_1 17.12.1
 _ZN12KPIMTextEdit20PlainTextEditFindBarD0Ev@ABI_5_1 17.12.1
 _ZN12KPIMTextEdit20PlainTextEditFindBarD1Ev@ABI_5_1 17.12.1
 _ZN12KPIMTextEdit20PlainTextEditFindBarD2Ev@ABI_5_1 17.12.1
 _ZN12KPIMTextEdit20RichTextEditorWidget11qt_metacallEN11QMetaObject4CallEiPPv@ABI_5_1 17.12.1
 _ZN12KPIMTextEdit20RichTextEditorWidget11qt_metacastEPKc@ABI_5_1 17.12.1
 _ZN12KPIMTextEdit20RichTextEditorWidget11setReadOnlyEb@ABI_5_1 17.12.1
 _ZN12KPIMTextEdit20RichTextEditorWidget11slotReplaceEv@ABI_5_1 17.12.1
 _ZN12KPIMTextEdit20RichTextEditorWidget12setPlainTextERK7QString@ABI_5_1 17.12.1
 _ZN12KPIMTextEdit20RichTextEditorWidget12slotFindNextEv@ABI_5_1 17.12.1
 _ZN12KPIMTextEdit20RichTextEditorWidget15slotHideFindBarEv@ABI_5_1 17.12.1
 _ZN12KPIMTextEdit20RichTextEditorWidget16staticMetaObjectE@ABI_5_1 17.12.1
 _ZN12KPIMTextEdit20RichTextEditorWidget17setAcceptRichTextEb@ABI_5_1 17.12.1
 _ZN12KPIMTextEdit20RichTextEditorWidget30setSpellCheckingConfigFileNameERK7QString@ABI_5_1 17.12.1
 _ZN12KPIMTextEdit20RichTextEditorWidget4initEPNS_14RichTextEditorE@ABI_5_1 17.12.1
 _ZN12KPIMTextEdit20RichTextEditorWidget5clearEv@ABI_5_1 17.12.1
 _ZN12KPIMTextEdit20RichTextEditorWidget7setHtmlERK7QString@ABI_5_1 17.12.1
 _ZN12KPIMTextEdit20RichTextEditorWidget8slotFindEv@ABI_5_1 17.12.1
 _ZN12KPIMTextEdit20RichTextEditorWidgetC1EP7QWidget@ABI_5_1 17.12.1
 _ZN12KPIMTextEdit20RichTextEditorWidgetC1EPNS_14RichTextEditorEP7QWidget@ABI_5_1 17.12.1
 _ZN12KPIMTextEdit20RichTextEditorWidgetC2EP7QWidget@ABI_5_1 17.12.1
 _ZN12KPIMTextEdit20RichTextEditorWidgetC2EPNS_14RichTextEditorEP7QWidget@ABI_5_1 17.12.1
 _ZN12KPIMTextEdit20RichTextEditorWidgetD0Ev@ABI_5_1 17.12.1
 _ZN12KPIMTextEdit20RichTextEditorWidgetD1Ev@ABI_5_1 17.12.1
 _ZN12KPIMTextEdit20RichTextEditorWidgetD2Ev@ABI_5_1 17.12.1
 _ZN12KPIMTextEdit21PlainTextEditorWidget11qt_metacallEN11QMetaObject4CallEiPPv@ABI_5_1 17.12.1
 _ZN12KPIMTextEdit21PlainTextEditorWidget11qt_metacastEPKc@ABI_5_1 17.12.1
 _ZN12KPIMTextEdit21PlainTextEditorWidget11setReadOnlyEb@ABI_5_1 17.12.1
 _ZN12KPIMTextEdit21PlainTextEditorWidget11slotReplaceEv@ABI_5_1 17.12.1
 _ZN12KPIMTextEdit21PlainTextEditorWidget12setPlainTextERK7QString@ABI_5_1 17.12.1
 _ZN12KPIMTextEdit21PlainTextEditorWidget15slotHideFindBarEv@ABI_5_1 17.12.1
 _ZN12KPIMTextEdit21PlainTextEditorWidget16staticMetaObjectE@ABI_5_1 17.12.1
 _ZN12KPIMTextEdit21PlainTextEditorWidget30setSpellCheckingConfigFileNameERK7QString@ABI_5_1 17.12.1
 _ZN12KPIMTextEdit21PlainTextEditorWidget4initEPNS_15PlainTextEditorE@ABI_5_1 17.12.1
 _ZN12KPIMTextEdit21PlainTextEditorWidget5clearEv@ABI_5_1 17.12.1
 _ZN12KPIMTextEdit21PlainTextEditorWidget8slotFindEv@ABI_5_1 17.12.1
 _ZN12KPIMTextEdit21PlainTextEditorWidgetC1EP7QWidget@ABI_5_1 17.12.1
 _ZN12KPIMTextEdit21PlainTextEditorWidgetC1EPNS_15PlainTextEditorEP7QWidget@ABI_5_1 17.12.1
 _ZN12KPIMTextEdit21PlainTextEditorWidgetC2EP7QWidget@ABI_5_1 17.12.1
 _ZN12KPIMTextEdit21PlainTextEditorWidgetC2EPNS_15PlainTextEditorEP7QWidget@ABI_5_1 17.12.1
 _ZN12KPIMTextEdit21PlainTextEditorWidgetD0Ev@ABI_5_1 17.12.1
 _ZN12KPIMTextEdit21PlainTextEditorWidgetD1Ev@ABI_5_1 17.12.1
 _ZN12KPIMTextEdit21PlainTextEditorWidgetD2Ev@ABI_5_1 17.12.1
 _ZN12KPIMTextEdit21TableCellFormatDialog11qt_metacallEN11QMetaObject4CallEiPPv@ABI_5_1 17.12.1
 _ZN12KPIMTextEdit21TableCellFormatDialog11qt_metacastEPKc@ABI_5_1 17.12.1
 _ZN12KPIMTextEdit21TableCellFormatDialog16staticMetaObjectE@ABI_5_1 17.12.1
 _ZN12KPIMTextEdit21TableCellFormatDialog20setVerticalAlignmentEN15QTextCharFormat17VerticalAlignmentE@ABI_5_1 17.12.1
 _ZN12KPIMTextEdit21TableCellFormatDialog27setTableCellBackgroundColorERK6QColor@ABI_5_1 17.12.1
 _ZN12KPIMTextEdit21TableCellFormatDialogC1EP7QWidget@ABI_5_1 17.12.1
 _ZN12KPIMTextEdit21TableCellFormatDialogC2EP7QWidget@ABI_5_1 17.12.1
 _ZN12KPIMTextEdit21TableCellFormatDialogD0Ev@ABI_5_1 17.12.1
 _ZN12KPIMTextEdit21TableCellFormatDialogD1Ev@ABI_5_1 17.12.1
 _ZN12KPIMTextEdit21TableCellFormatDialogD2Ev@ABI_5_1 17.12.1
 _ZN12KPIMTextEdit21TextToSpeechInterface11qt_metacallEN11QMetaObject4CallEiPPv@ABI_5_1 17.12.1
 _ZN12KPIMTextEdit21TextToSpeechInterface11qt_metacastEPKc@ABI_5_1 17.12.1
 _ZN12KPIMTextEdit21TextToSpeechInterface12stateChangedENS_18TextToSpeechWidget5StateE@ABI_5_1 17.12.1
 _ZN12KPIMTextEdit21TextToSpeechInterface14reloadSettingsEv@ABI_5_1 17.12.1
 _ZN12KPIMTextEdit21TextToSpeechInterface16staticMetaObjectE@ABI_5_1 17.12.1
 _ZN12KPIMTextEdit21TextToSpeechInterface3sayERK7QString@ABI_5_1 17.12.1
 _ZN12KPIMTextEdit21TextToSpeechInterface9setVolumeEi@ABI_5_1 17.12.1
 _ZN12KPIMTextEdit21TextToSpeechInterfaceC1EPNS_18TextToSpeechWidgetEP7QObject@ABI_5_1 17.12.1
 _ZN12KPIMTextEdit21TextToSpeechInterfaceC2EPNS_18TextToSpeechWidgetEP7QObject@ABI_5_1 17.12.1
 _ZN12KPIMTextEdit21TextToSpeechInterfaceD0Ev@ABI_5_1 17.12.1
 _ZN12KPIMTextEdit21TextToSpeechInterfaceD1Ev@ABI_5_1 17.12.1
 _ZN12KPIMTextEdit21TextToSpeechInterfaceD2Ev@ABI_5_1 17.12.1
 _ZN12KPIMTextEdit22EmoticonTextEditAction11qt_metacallEN11QMetaObject4CallEiPPv@ABI_5_1 17.12.1
 _ZN12KPIMTextEdit22EmoticonTextEditAction11qt_metacastEPKc@ABI_5_1 17.12.1
 _ZN12KPIMTextEdit22EmoticonTextEditAction16staticMetaObjectE@ABI_5_1 17.12.1
 _ZN12KPIMTextEdit22EmoticonTextEditAction17emoticonActivatedERK7QString@ABI_5_1 17.12.1
 _ZN12KPIMTextEdit22EmoticonTextEditActionC1EP7QObject@ABI_5_1 17.12.1
 _ZN12KPIMTextEdit22EmoticonTextEditActionC2EP7QObject@ABI_5_1 17.12.1
 _ZN12KPIMTextEdit22EmoticonTextEditActionD0Ev@ABI_5_1 17.12.1
 _ZN12KPIMTextEdit22EmoticonTextEditActionD1Ev@ABI_5_1 17.12.1
 _ZN12KPIMTextEdit22EmoticonTextEditActionD2Ev@ABI_5_1 17.12.1
 _ZN12KPIMTextEdit22RichTextComposerImages11insertImageERK6QImageRK9QFileInfo@ABI_5_1 17.12.1
 _ZN12KPIMTextEdit22RichTextComposerImages11qt_metacallEN11QMetaObject4CallEiPPv@ABI_5_1 17.12.1
 _ZN12KPIMTextEdit22RichTextComposerImages11qt_metacastEPKc@ABI_5_1 17.12.1
 _ZN12KPIMTextEdit22RichTextComposerImages14addImageHelperERK4QUrlii@ABI_5_1 17.12.1
 _ZN12KPIMTextEdit22RichTextComposerImages14addImageHelperERK7QStringRK6QImageii@ABI_5_1 17.12.1
 _ZN12KPIMTextEdit22RichTextComposerImages16staticMetaObjectE@ABI_5_1 17.12.1
 _ZN12KPIMTextEdit22RichTextComposerImages22imageNamesToContentIdsERK10QByteArrayRK5QListI14QSharedPointerINS_13EmbeddedImageEEE@ABI_5_1 17.12.1
 _ZN12KPIMTextEdit22RichTextComposerImages8addImageERK4QUrlii@ABI_5_1 17.12.1
 _ZN12KPIMTextEdit22RichTextComposerImages9loadImageERK6QImageRK7QStringS6_@ABI_5_1 17.12.1
 _ZN12KPIMTextEdit22RichTextComposerImagesC1EPNS_16RichTextComposerEP7QObject@ABI_5_1 17.12.1
 _ZN12KPIMTextEdit22RichTextComposerImagesC2EPNS_16RichTextComposerEP7QObject@ABI_5_1 17.12.1
 _ZN12KPIMTextEdit22RichTextComposerImagesD0Ev@ABI_5_1 17.12.1
 _ZN12KPIMTextEdit22RichTextComposerImagesD1Ev@ABI_5_1 17.12.1
 _ZN12KPIMTextEdit22RichTextComposerImagesD2Ev@ABI_5_1 17.12.1
 _ZN12KPIMTextEdit22RichTextComposerWidget11qt_metacallEN11QMetaObject4CallEiPPv@ABI_5_1 17.12.1
 _ZN12KPIMTextEdit22RichTextComposerWidget11qt_metacastEPKc@ABI_5_1 17.12.1
 _ZN12KPIMTextEdit22RichTextComposerWidget16staticMetaObjectE@ABI_5_1 17.12.1
 _ZN12KPIMTextEdit22RichTextComposerWidgetC1EP7QWidget@ABI_5_1 17.12.1
 _ZN12KPIMTextEdit22RichTextComposerWidgetC2EP7QWidget@ABI_5_1 17.12.1
 _ZN12KPIMTextEdit22RichTextComposerWidgetD0Ev@ABI_5_1 17.12.1
 _ZN12KPIMTextEdit22RichTextComposerWidgetD1Ev@ABI_5_1 17.12.1
 _ZN12KPIMTextEdit22RichTextComposerWidgetD2Ev@ABI_5_1 17.12.1
 _ZN12KPIMTextEdit23RichTextComposerActions11qt_metacallEN11QMetaObject4CallEiPPv@ABI_5_1 17.12.1
 _ZN12KPIMTextEdit23RichTextComposerActions11qt_metacastEPKc@ABI_5_1 17.12.1
 _ZN12KPIMTextEdit23RichTextComposerActions12setListStyleEi@ABI_5_1 17.12.1
 _ZN12KPIMTextEdit23RichTextComposerActions13createActionsEP17KActionCollection@ABI_5_1 17.12.1
 _ZN12KPIMTextEdit23RichTextComposerActions15textModeChangedENS_16RichTextComposer4ModeE@ABI_5_1 17.12.1
 _ZN12KPIMTextEdit23RichTextComposerActions16staticMetaObjectE@ABI_5_1 17.12.1
 _ZN12KPIMTextEdit23RichTextComposerActions17setActionsEnabledEb@ABI_5_1 17.12.1
 _ZN12KPIMTextEdit23RichTextComposerActions18updateActionStatesEv@ABI_5_1 17.12.1
 _ZN12KPIMTextEdit23RichTextComposerActions21slotUpdateMiscActionsEv@ABI_5_1 17.12.1
 _ZN12KPIMTextEdit23RichTextComposerActions26uncheckActionFormatPainterEv@ABI_5_1 17.12.1
 _ZN12KPIMTextEdit23RichTextComposerActions27slotUpdateCharFormatActionsERK15QTextCharFormat@ABI_5_1 17.12.1
 _ZN12KPIMTextEdit23RichTextComposerActionsC1EPNS_25RichTextComposerControlerEP7QObject@ABI_5_1 17.12.1
 _ZN12KPIMTextEdit23RichTextComposerActionsC2EPNS_25RichTextComposerControlerEP7QObject@ABI_5_1 17.12.1
 _ZN12KPIMTextEdit23RichTextComposerActionsD0Ev@ABI_5_1 17.12.1
 _ZN12KPIMTextEdit23RichTextComposerActionsD1Ev@ABI_5_1 17.12.1
 _ZN12KPIMTextEdit23RichTextComposerActionsD2Ev@ABI_5_1 17.12.1
 _ZN12KPIMTextEdit23SelectSpecialCharDialog11qt_metacallEN11QMetaObject4CallEiPPv@ABI_5_1 17.12.1
 _ZN12KPIMTextEdit23SelectSpecialCharDialog11qt_metacastEPKc@ABI_5_1 17.12.1
 _ZN12KPIMTextEdit23SelectSpecialCharDialog12charSelectedE5QChar@ABI_5_1 17.12.1
 _ZN12KPIMTextEdit23SelectSpecialCharDialog14autoInsertCharEv@ABI_5_1 17.12.1
 _ZN12KPIMTextEdit23SelectSpecialCharDialog14setCurrentCharE5QChar@ABI_5_1 17.12.1
 _ZN12KPIMTextEdit23SelectSpecialCharDialog15setOkButtonTextERK7QString@ABI_5_1 17.12.1
 _ZN12KPIMTextEdit23SelectSpecialCharDialog16showSelectButtonEb@ABI_5_1 17.12.1
 _ZN12KPIMTextEdit23SelectSpecialCharDialog16staticMetaObjectE@ABI_5_1 17.12.1
 _ZN12KPIMTextEdit23SelectSpecialCharDialogC1EP7QWidget@ABI_5_1 17.12.1
 _ZN12KPIMTextEdit23SelectSpecialCharDialogC2EP7QWidget@ABI_5_1 17.12.1
 _ZN12KPIMTextEdit23SelectSpecialCharDialogD0Ev@ABI_5_1 17.12.1
 _ZN12KPIMTextEdit23SelectSpecialCharDialogD1Ev@ABI_5_1 17.12.1
 _ZN12KPIMTextEdit23SelectSpecialCharDialogD2Ev@ABI_5_1 17.12.1
 _ZN12KPIMTextEdit24RichTextExternalComposer11qt_metacallEN11QMetaObject4CallEiPPv@ABI_5_1 17.12.1
 _ZN12KPIMTextEdit24RichTextExternalComposer11qt_metacastEPKc@ABI_5_1 17.12.1
 _ZN12KPIMTextEdit24RichTextExternalComposer16staticMetaObjectE@ABI_5_1 17.12.1
 _ZN12KPIMTextEdit24RichTextExternalComposer18killExternalEditorEv@ABI_5_1 17.12.1
 _ZN12KPIMTextEdit24RichTextExternalComposer18slotEditorFinishedEiN8QProcess10ExitStatusE@ABI_5_1 17.12.1
 _ZN12KPIMTextEdit24RichTextExternalComposer19startExternalEditorEv@ABI_5_1 17.12.1
 _ZN12KPIMTextEdit24RichTextExternalComposer20externalEditorClosedEv@ABI_5_1 17.12.1
 _ZN12KPIMTextEdit24RichTextExternalComposer20setUseExternalEditorEb@ABI_5_1 17.12.1
 _ZN12KPIMTextEdit24RichTextExternalComposer21externalEditorStartedEv@ABI_5_1 17.12.1
 _ZN12KPIMTextEdit24RichTextExternalComposer21setExternalEditorPathERK7QString@ABI_5_1 17.12.1
 _ZN12KPIMTextEdit24RichTextExternalComposer27checkExternalEditorFinishedEv@ABI_5_1 17.12.1
 _ZN12KPIMTextEdit24RichTextExternalComposerC1EPNS_16RichTextComposerEP7QObject@ABI_5_1 17.12.1
 _ZN12KPIMTextEdit24RichTextExternalComposerC2EPNS_16RichTextComposerEP7QObject@ABI_5_1 17.12.1
 _ZN12KPIMTextEdit24RichTextExternalComposerD0Ev@ABI_5_1 17.12.1
 _ZN12KPIMTextEdit24RichTextExternalComposerD1Ev@ABI_5_1 17.12.1
 _ZN12KPIMTextEdit24RichTextExternalComposerD2Ev@ABI_5_1 17.12.1
 _ZN12KPIMTextEdit24TextToSpeechConfigDialog10readConfigEv@ABI_5_1 17.12.1
 _ZN12KPIMTextEdit24TextToSpeechConfigDialog11qt_metacallEN11QMetaObject4CallEiPPv@ABI_5_1 17.12.1
 _ZN12KPIMTextEdit24TextToSpeechConfigDialog11qt_metacastEPKc@ABI_5_1 17.12.1
 _ZN12KPIMTextEdit24TextToSpeechConfigDialog11writeConfigEv@ABI_5_1 17.12.1
 _ZN12KPIMTextEdit24TextToSpeechConfigDialog12slotAcceptedEv@ABI_5_1 17.12.1
 _ZN12KPIMTextEdit24TextToSpeechConfigDialog16staticMetaObjectE@ABI_5_1 17.12.1
 _ZN12KPIMTextEdit24TextToSpeechConfigDialog19slotRestoreDefaultsEv@ABI_5_1 17.12.1
 _ZN12KPIMTextEdit24TextToSpeechConfigDialogC1EP7QWidget@ABI_5_1 17.12.1
 _ZN12KPIMTextEdit24TextToSpeechConfigDialogC2EP7QWidget@ABI_5_1 17.12.1
 _ZN12KPIMTextEdit24TextToSpeechConfigDialogD0Ev@ABI_5_1 17.12.1
 _ZN12KPIMTextEdit24TextToSpeechConfigDialogD1Ev@ABI_5_1 17.12.1
 _ZN12KPIMTextEdit24TextToSpeechConfigDialogD2Ev@ABI_5_1 17.12.1
 _ZN12KPIMTextEdit24TextToSpeechConfigWidget10readConfigEv@ABI_5_1 17.12.1
 _ZN12KPIMTextEdit24TextToSpeechConfigWidget11qt_metacallEN11QMetaObject4CallEiPPv@ABI_5_1 17.12.1
 _ZN12KPIMTextEdit24TextToSpeechConfigWidget11qt_metacastEPKc@ABI_5_1 17.12.1
 _ZN12KPIMTextEdit24TextToSpeechConfigWidget11updateVoiceEv@ABI_5_1 17.12.1
 _ZN12KPIMTextEdit24TextToSpeechConfigWidget11writeConfigEv@ABI_5_1 17.12.1
 _ZN12KPIMTextEdit24TextToSpeechConfigWidget12updateEngineEv@ABI_5_1 17.12.1
 _ZN12KPIMTextEdit24TextToSpeechConfigWidget12updateLocaleEv@ABI_5_1 17.12.1
 _ZN12KPIMTextEdit24TextToSpeechConfigWidget12valueChangedEv@ABI_5_1 17.12.1
 _ZN12KPIMTextEdit24TextToSpeechConfigWidget13configChangedEb@ABI_5_1 17.12.1
 _ZN12KPIMTextEdit24TextToSpeechConfigWidget15restoreDefaultsEv@ABI_5_1 17.12.1
 _ZN12KPIMTextEdit24TextToSpeechConfigWidget16staticMetaObjectE@ABI_5_1 17.12.1
 _ZN12KPIMTextEdit24TextToSpeechConfigWidget17slotEngineChangedEv@ABI_5_1 17.12.1
 _ZN12KPIMTextEdit24TextToSpeechConfigWidget18slotUpdateSettingsEv@ABI_5_1 17.12.1
 _ZN12KPIMTextEdit24TextToSpeechConfigWidget19slotLanguageChangedEv@ABI_5_1 17.12.1
 _ZN12KPIMTextEdit24TextToSpeechConfigWidget21updateAvailableEngineEv@ABI_5_1 17.12.1
 _ZN12KPIMTextEdit24TextToSpeechConfigWidget21updateAvailableVoicesEv@ABI_5_1 17.12.1
 _ZN12KPIMTextEdit24TextToSpeechConfigWidget22updateAvailableLocalesEv@ABI_5_1 17.12.1
 _ZN12KPIMTextEdit24TextToSpeechConfigWidget30setTextToSpeechConfigInterfaceEPNS_35AbstractTextToSpeechConfigInterfaceE@ABI_5_1 17.12.1
 _ZN12KPIMTextEdit24TextToSpeechConfigWidgetC1EP7QWidget@ABI_5_1 17.12.1
 _ZN12KPIMTextEdit24TextToSpeechConfigWidgetC2EP7QWidget@ABI_5_1 17.12.1
 _ZN12KPIMTextEdit24TextToSpeechConfigWidgetD0Ev@ABI_5_1 17.12.1
 _ZN12KPIMTextEdit24TextToSpeechConfigWidgetD1Ev@ABI_5_1 17.12.1
 _ZN12KPIMTextEdit24TextToSpeechConfigWidgetD2Ev@ABI_5_1 17.12.1
 _ZN12KPIMTextEdit25RichTextComposerControler10alignRightEv@ABI_5_1 17.12.1
 _ZN12KPIMTextEdit25RichTextComposerControler10insertLinkERK7QString@ABI_5_1 17.12.1
 _ZN12KPIMTextEdit25RichTextComposerControler10manageLinkEv@ABI_5_1 17.12.1
 _ZN12KPIMTextEdit25RichTextComposerControler10updateLinkERK7QStringS3_@ABI_5_1 17.12.1
 _ZN12KPIMTextEdit25RichTextComposerControler11alignCenterEv@ABI_5_1 17.12.1
 _ZN12KPIMTextEdit25RichTextComposerControler11qt_metacallEN11QMetaObject4CallEiPPv@ABI_5_1 17.12.1
 _ZN12KPIMTextEdit25RichTextComposerControler11qt_metacastEPKc@ABI_5_1 17.12.1
 _ZN12KPIMTextEdit25RichTextComposerControler11setFontSizeEi@ABI_5_1 17.12.1
 _ZN12KPIMTextEdit25RichTextComposerControler11setTextBoldEb@ABI_5_1 17.12.1
 _ZN12KPIMTextEdit25RichTextComposerControler12alignJustifyEv@ABI_5_1 17.12.1
 _ZN12KPIMTextEdit25RichTextComposerControler12setListStyleEi@ABI_5_1 17.12.1
 _ZN12KPIMTextEdit25RichTextComposerControler12slotAddImageEv@ABI_5_1 17.12.1
 _ZN12KPIMTextEdit25RichTextComposerControler13setFontFamilyERK7QString@ABI_5_1 17.12.1
 _ZN12KPIMTextEdit25RichTextComposerControler13setTextItalicEb@ABI_5_1 17.12.1
 _ZN12KPIMTextEdit25RichTextComposerControler13slotAddQuotesEv@ABI_5_1 17.12.1
 _ZN12KPIMTextEdit25RichTextComposerControler14disablePainterEv@ABI_5_1 17.12.1
 _ZN12KPIMTextEdit25RichTextComposerControler14indentListLessEv@ABI_5_1 17.12.1
 _ZN12KPIMTextEdit25RichTextComposerControler14indentListMoreEv@ABI_5_1 17.12.1
 _ZN12KPIMTextEdit25RichTextComposerControler14slotDeleteLineEv@ABI_5_1 17.12.1
 _ZN12KPIMTextEdit25RichTextComposerControler14slotInsertHtmlEv@ABI_5_1 17.12.1
 _ZN12KPIMTextEdit25RichTextComposerControler15insertShareLinkERK7QString@ABI_5_1 17.12.1
 _ZN12KPIMTextEdit25RichTextComposerControler15makeLeftToRightEv@ABI_5_1 17.12.1
 _ZN12KPIMTextEdit25RichTextComposerControler15makeRightToLeftEv@ABI_5_1 17.12.1
 _ZN12KPIMTextEdit25RichTextComposerControler15slotAddEmoticonERK7QString@ABI_5_1 17.12.1
 _ZN12KPIMTextEdit25RichTextComposerControler15slotFormatResetEv@ABI_5_1 17.12.1
 _ZN12KPIMTextEdit25RichTextComposerControler15textModeChangedENS_16RichTextComposer4ModeE@ABI_5_1 17.12.1
 _ZN12KPIMTextEdit25RichTextComposerControler16setTextStrikeOutEb@ABI_5_1 17.12.1
 _ZN12KPIMTextEdit25RichTextComposerControler16setTextSubScriptEb@ABI_5_1 17.12.1
 _ZN12KPIMTextEdit25RichTextComposerControler16setTextUnderlineEb@ABI_5_1 17.12.1
 _ZN12KPIMTextEdit25RichTextComposerControler16slotRemoveQuotesEv@ABI_5_1 17.12.1
 _ZN12KPIMTextEdit25RichTextComposerControler16staticMetaObjectE@ABI_5_1 17.12.1
 _ZN12KPIMTextEdit25RichTextComposerControler17slotFormatPainterEb@ABI_5_1 17.12.1
 _ZN12KPIMTextEdit25RichTextComposerControler18setTextSuperScriptEb@ABI_5_1 17.12.1
 _ZN12KPIMTextEdit25RichTextComposerControler19ensureCursorVisibleEv@ABI_5_1 17.12.1
 _ZN12KPIMTextEdit25RichTextComposerControler19setFontForWholeTextERK5QFont@ABI_5_1 17.12.1
 _ZN12KPIMTextEdit25RichTextComposerControler20insertHorizontalRuleEv@ABI_5_1 17.12.1
 _ZN12KPIMTextEdit25RichTextComposerControler20slotPasteAsQuotationEv@ABI_5_1 17.12.1
 _ZN12KPIMTextEdit25RichTextComposerControler22setTextBackgroundColorERK6QColor@ABI_5_1 17.12.1
 _ZN12KPIMTextEdit25RichTextComposerControler22setTextForegroundColorERK6QColor@ABI_5_1 17.12.1
 _ZN12KPIMTextEdit25RichTextComposerControler26ensureCursorVisibleDelayedEv@ABI_5_1 17.12.1
 _ZN12KPIMTextEdit25RichTextComposerControler26setCursorPositionFromStartEj@ABI_5_1 17.12.1
 _ZN12KPIMTextEdit25RichTextComposerControler26slotPasteWithoutFormattingEv@ABI_5_1 17.12.1
 _ZN12KPIMTextEdit25RichTextComposerControler28setChangeTextBackgroundColorEv@ABI_5_1 17.12.1
 _ZN12KPIMTextEdit25RichTextComposerControler28setChangeTextForegroundColorEv@ABI_5_1 17.12.1
 _ZN12KPIMTextEdit25RichTextComposerControler7setFontERK5QFont@ABI_5_1 17.12.1
 _ZN12KPIMTextEdit25RichTextComposerControler9alignLeftEv@ABI_5_1 17.12.1
 _ZN12KPIMTextEdit25RichTextComposerControlerC1EPNS_16RichTextComposerEP7QObject@ABI_5_1 17.12.1
 _ZN12KPIMTextEdit25RichTextComposerControlerC2EPNS_16RichTextComposerEP7QObject@ABI_5_1 17.12.1
 _ZN12KPIMTextEdit25RichTextComposerControlerD0Ev@ABI_5_1 17.12.1
 _ZN12KPIMTextEdit25RichTextComposerControlerD1Ev@ABI_5_1 17.12.1
 _ZN12KPIMTextEdit25RichTextComposerControlerD2Ev@ABI_5_1 17.12.1
 _ZN12KPIMTextEdit27TextToSpeechConfigInterface11qt_metacallEN11QMetaObject4CallEiPPv@ABI_5_1 17.12.1
 _ZN12KPIMTextEdit27TextToSpeechConfigInterface11qt_metacastEPKc@ABI_5_1 17.12.1
 _ZN12KPIMTextEdit27TextToSpeechConfigInterface16staticMetaObjectE@ABI_5_1 17.12.1
 _ZN12KPIMTextEdit27TextToSpeechConfigInterface9setEngineERK7QString@ABI_5_1 17.12.1
 _ZN12KPIMTextEdit27TextToSpeechConfigInterfaceC1EP7QObject@ABI_5_1 17.12.1
 _ZN12KPIMTextEdit27TextToSpeechConfigInterfaceC2EP7QObject@ABI_5_1 17.12.1
 _ZN12KPIMTextEdit27TextToSpeechConfigInterfaceD0Ev@ABI_5_1 17.12.1
 _ZN12KPIMTextEdit27TextToSpeechConfigInterfaceD1Ev@ABI_5_1 17.12.1
 _ZN12KPIMTextEdit27TextToSpeechConfigInterfaceD2Ev@ABI_5_1 17.12.1
 _ZN12KPIMTextEdit29AbstractTextToSpeechInterface11qt_metacallEN11QMetaObject4CallEiPPv@ABI_5_1 17.12.1
 _ZN12KPIMTextEdit29AbstractTextToSpeechInterface11qt_metacastEPKc@ABI_5_1 17.12.1
 _ZN12KPIMTextEdit29AbstractTextToSpeechInterface14reloadSettingsEv@ABI_5_1 17.12.1
 _ZN12KPIMTextEdit29AbstractTextToSpeechInterface16staticMetaObjectE@ABI_5_1 17.12.1
 _ZN12KPIMTextEdit29AbstractTextToSpeechInterface3sayERK7QString@ABI_5_1 17.12.1
 _ZN12KPIMTextEdit29AbstractTextToSpeechInterface9setVolumeEi@ABI_5_1 17.12.1
 _ZN12KPIMTextEdit29AbstractTextToSpeechInterfaceC1EP7QObject@ABI_5_1 17.12.1
 _ZN12KPIMTextEdit29AbstractTextToSpeechInterfaceC2EP7QObject@ABI_5_1 17.12.1
 _ZN12KPIMTextEdit29AbstractTextToSpeechInterfaceD0Ev@ABI_5_1 17.12.1
 _ZN12KPIMTextEdit29AbstractTextToSpeechInterfaceD1Ev@ABI_5_1 17.12.1
 _ZN12KPIMTextEdit29AbstractTextToSpeechInterfaceD2Ev@ABI_5_1 17.12.1
 _ZN12KPIMTextEdit35AbstractTextToSpeechConfigInterface11qt_metacallEN11QMetaObject4CallEiPPv@ABI_5_1 17.12.1
 _ZN12KPIMTextEdit35AbstractTextToSpeechConfigInterface11qt_metacastEPKc@ABI_5_1 17.12.1
 _ZN12KPIMTextEdit35AbstractTextToSpeechConfigInterface16staticMetaObjectE@ABI_5_1 17.12.1
 _ZN12KPIMTextEdit35AbstractTextToSpeechConfigInterface9setEngineERK7QString@ABI_5_1 17.12.1
 _ZN12KPIMTextEdit35AbstractTextToSpeechConfigInterface9setLocaleERK7QLocale@ABI_5_1 17.12.1
 _ZN12KPIMTextEdit35AbstractTextToSpeechConfigInterfaceC1EP7QObject@ABI_5_1 17.12.1
 _ZN12KPIMTextEdit35AbstractTextToSpeechConfigInterfaceC2EP7QObject@ABI_5_1 17.12.1
 _ZN12KPIMTextEdit35AbstractTextToSpeechConfigInterfaceD0Ev@ABI_5_1 17.12.1
 _ZN12KPIMTextEdit35AbstractTextToSpeechConfigInterfaceD1Ev@ABI_5_1 17.12.1
 _ZN12KPIMTextEdit35AbstractTextToSpeechConfigInterfaceD2Ev@ABI_5_1 17.12.1
 _ZN12KPIMTextEdit35RichTextComposerEmailQuoteDecoratorC1EPNS_16RichTextComposerE@ABI_5_1 17.12.1
 _ZN12KPIMTextEdit35RichTextComposerEmailQuoteDecoratorC2EPNS_16RichTextComposerE@ABI_5_1 17.12.1
 _ZN12KPIMTextEdit35RichTextComposerEmailQuoteDecoratorD0Ev@ABI_5_1 17.12.1
 _ZN12KPIMTextEdit35RichTextComposerEmailQuoteDecoratorD1Ev@ABI_5_1 17.12.1
 _ZN12KPIMTextEdit35RichTextComposerEmailQuoteDecoratorD2Ev@ABI_5_1 17.12.1
 _ZN12KPIMTextEdit37RichTextComposerEmailQuoteHighlighter11qt_metacallEN11QMetaObject4CallEiPPv@ABI_5_1 17.12.1
 _ZN12KPIMTextEdit37RichTextComposerEmailQuoteHighlighter11qt_metacastEPKc@ABI_5_1 17.12.1
 _ZN12KPIMTextEdit37RichTextComposerEmailQuoteHighlighter13setMisspelledEii@ABI_5_1 17.12.1
 _ZN12KPIMTextEdit37RichTextComposerEmailQuoteHighlighter13setQuoteColorERK6QColorS3_S3_S3_S3_@ABI_5_1 17.12.1
 _ZN12KPIMTextEdit37RichTextComposerEmailQuoteHighlighter14highlightBlockERK7QString@ABI_5_1 17.12.1
 _ZN12KPIMTextEdit37RichTextComposerEmailQuoteHighlighter15unsetMisspelledEii@ABI_5_1 17.12.1
 _ZN12KPIMTextEdit37RichTextComposerEmailQuoteHighlighter16staticMetaObjectE@ABI_5_1 17.12.1
 _ZN12KPIMTextEdit37RichTextComposerEmailQuoteHighlighter23toggleSpellHighlightingEb@ABI_5_1 17.12.1
 _ZN12KPIMTextEdit37RichTextComposerEmailQuoteHighlighterC1EPNS_16RichTextComposerERK6QColorS5_S5_S5_S5_@ABI_5_1 17.12.1
 _ZN12KPIMTextEdit37RichTextComposerEmailQuoteHighlighterC2EPNS_16RichTextComposerERK6QColorS5_S5_S5_S5_@ABI_5_1 17.12.1
 _ZN12KPIMTextEdit37RichTextComposerEmailQuoteHighlighterD0Ev@ABI_5_1 17.12.1
 _ZN12KPIMTextEdit37RichTextComposerEmailQuoteHighlighterD1Ev@ABI_5_1 17.12.1
 _ZN12KPIMTextEdit37RichTextComposerEmailQuoteHighlighterD2Ev@ABI_5_1 17.12.1
 _ZN12KPIMTextEdit39PlainTextSyntaxSpellCheckingHighlighter11applyFormatEiiRKN19KSyntaxHighlighting6FormatE@ABI_5_1 17.12.1
 _ZN12KPIMTextEdit39PlainTextSyntaxSpellCheckingHighlighter13setDefinitionERKN19KSyntaxHighlighting10DefinitionE@ABI_5_1 17.12.1
 _ZN12KPIMTextEdit39PlainTextSyntaxSpellCheckingHighlighter13setMisspelledEii@ABI_5_1 17.12.1
 _ZN12KPIMTextEdit39PlainTextSyntaxSpellCheckingHighlighter14highlightBlockERK7QString@ABI_5_1 17.12.1
 _ZN12KPIMTextEdit39PlainTextSyntaxSpellCheckingHighlighter15unsetMisspelledEii@ABI_5_1 17.12.1
 _ZN12KPIMTextEdit39PlainTextSyntaxSpellCheckingHighlighter23toggleSpellHighlightingEb@ABI_5_1 17.12.1
 _ZN12KPIMTextEdit39PlainTextSyntaxSpellCheckingHighlighterC1EPNS_15PlainTextEditorERK6QColor@ABI_5_1 17.12.1
 _ZN12KPIMTextEdit39PlainTextSyntaxSpellCheckingHighlighterC2EPNS_15PlainTextEditorERK6QColor@ABI_5_1 17.12.1
 _ZN12KPIMTextEdit39PlainTextSyntaxSpellCheckingHighlighterD0Ev@ABI_5_1 17.12.1
 _ZN12KPIMTextEdit39PlainTextSyntaxSpellCheckingHighlighterD1Ev@ABI_5_1 17.12.1
 _ZN12KPIMTextEdit39PlainTextSyntaxSpellCheckingHighlighterD2Ev@ABI_5_1 17.12.1
 _ZN12KPIMTextEdit9TextUtils18containsFormattingEPK13QTextDocument@ABI_5_1 17.12.1
 _ZN12KPIMTextEdit9TextUtils8flowTextER7QStringRKS1_i@ABI_5_1 17.12.1
 (optional=templinst|arch=!alpha !hurd-i386 !i386 !kfreebsd-i386 !mips !mipsel !ppc64 !s390x)_ZNK12KConfigGroup9readEntryI5QSizeEET_PKcRKS2_@ABI_5_1 17.12.1
 (optional=templinst)_ZNK12KConfigGroup9readEntryIbEET_PKcRKS1_@ABI_5_1 17.12.1
 (optional=templinst)_ZNK12KConfigGroup9readEntryIdEET_PKcRKS1_@ABI_5_1 17.12.1
 _ZNK12KPIMTextEdit10EditorUtil11reverseCaseER11QTextCursor@ABI_5_1 17.12.1
 _ZNK12KPIMTextEdit10EditorUtil12sentenceCaseER11QTextCursor@ABI_5_1 17.12.1
 _ZNK12KPIMTextEdit10EditorUtil9lowerCaseER11QTextCursor@ABI_5_1 17.12.1
 _ZNK12KPIMTextEdit10EditorUtil9upperCaseER11QTextCursor@ABI_5_1 17.12.1
 _ZNK12KPIMTextEdit12TextToSpeech10metaObjectEv@ABI_5_1 17.12.1
 _ZNK12KPIMTextEdit12TextToSpeech15availableVoicesEv@ABI_5_1 17.12.1
 _ZNK12KPIMTextEdit12TextToSpeech16availableEnginesEv@ABI_5_1 17.12.1
 _ZNK12KPIMTextEdit12TextToSpeech16availableLocalesEv@ABI_5_1 17.12.1
 _ZNK12KPIMTextEdit12TextToSpeech6localeEv@ABI_5_1 17.12.1
 _ZNK12KPIMTextEdit12TextToSpeech6volumeEv@ABI_5_1 17.12.1
 _ZNK12KPIMTextEdit12TextToSpeech7isReadyEv@ABI_5_1 17.12.1
 _ZNK12KPIMTextEdit12TextToSpeech9setLocaleERK7QLocale@ABI_5_1 17.12.1
 _ZNK12KPIMTextEdit14RichTextEditor10metaObjectEv@ABI_5_1 17.12.1
 _ZNK12KPIMTextEdit14RichTextEditor11highlighterEv@ABI_5_1 17.12.1
 _ZNK12KPIMTextEdit14RichTextEditor13searchSupportEv@ABI_5_1 17.12.1
 _ZNK12KPIMTextEdit14RichTextEditor15allowTabSupportEv@ABI_5_1 17.12.1
 _ZNK12KPIMTextEdit14RichTextEditor18webShortcutSupportEv@ABI_5_1 17.12.1
 _ZNK12KPIMTextEdit14RichTextEditor19textToSpeechSupportEv@ABI_5_1 17.12.1
 _ZNK12KPIMTextEdit14RichTextEditor20activateLanguageMenuEv@ABI_5_1 17.12.1
 _ZNK12KPIMTextEdit14RichTextEditor20checkSpellingEnabledEv@ABI_5_1 17.12.1
 _ZNK12KPIMTextEdit14RichTextEditor20spellCheckingSupportEv@ABI_5_1 17.12.1
 _ZNK12KPIMTextEdit14RichTextEditor21showAutoCorrectButtonEv@ABI_5_1 17.12.1
 _ZNK12KPIMTextEdit14RichTextEditor21spellCheckingLanguageEv@ABI_5_1 17.12.1
 _ZNK12KPIMTextEdit14RichTextEditor27spellCheckingConfigFileNameEv@ABI_5_1 17.12.1
 _ZNK12KPIMTextEdit14SlideContainer10metaObjectEv@ABI_5_1 17.12.1
 _ZNK12KPIMTextEdit14SlideContainer11slideHeightEv@ABI_5_1 17.12.1
 _ZNK12KPIMTextEdit14SlideContainer15minimumSizeHintEv@ABI_5_1 17.12.1
 _ZNK12KPIMTextEdit14SlideContainer7contentEv@ABI_5_1 17.12.1
 _ZNK12KPIMTextEdit14SlideContainer8sizeHintEv@ABI_5_1 17.12.1
 _ZNK12KPIMTextEdit15PlainTextEditor10metaObjectEv@ABI_5_1 17.12.1
 _ZNK12KPIMTextEdit15PlainTextEditor11highlighterEv@ABI_5_1 17.12.1
 _ZNK12KPIMTextEdit15PlainTextEditor13searchSupportEv@ABI_5_1 17.12.1
 _ZNK12KPIMTextEdit15PlainTextEditor18webShortcutSupportEv@ABI_5_1 17.12.1
 _ZNK12KPIMTextEdit15PlainTextEditor19textToSpeechSupportEv@ABI_5_1 17.12.1
 _ZNK12KPIMTextEdit15PlainTextEditor20activateLanguageMenuEv@ABI_5_1 17.12.1
 _ZNK12KPIMTextEdit15PlainTextEditor20checkSpellingEnabledEv@ABI_5_1 17.12.1
 _ZNK12KPIMTextEdit15PlainTextEditor20spellCheckingSupportEv@ABI_5_1 17.12.1
 _ZNK12KPIMTextEdit15PlainTextEditor21spellCheckingLanguageEv@ABI_5_1 17.12.1
 _ZNK12KPIMTextEdit15PlainTextEditor27spellCheckingConfigFileNameEv@ABI_5_1 17.12.1
 _ZNK12KPIMTextEdit15TableActionMenu10metaObjectEv@ABI_5_1 17.12.1
 _ZNK12KPIMTextEdit16InsertHtmlDialog10metaObjectEv@ABI_5_1 17.12.1
 _ZNK12KPIMTextEdit16InsertHtmlDialog4htmlEv@ABI_5_1 17.12.1
 _ZNK12KPIMTextEdit16RichTextComposer10metaObjectEv@ABI_5_1 17.12.1
 _ZNK12KPIMTextEdit16RichTextComposer10textOrHtmlEv@ABI_5_1 17.12.1
 _ZNK12KPIMTextEdit16RichTextComposer11quoteLengthERK7QStringb@ABI_5_1 17.12.1
 _ZNK12KPIMTextEdit16RichTextComposer12columnNumberEv@ABI_5_1 17.12.1
 _ZNK12KPIMTextEdit16RichTextComposer12isLineQuotedERK7QString@ABI_5_1 17.12.1
 _ZNK12KPIMTextEdit16RichTextComposer12linePositionEv@ABI_5_1 17.12.1
 _ZNK12KPIMTextEdit16RichTextComposer15composerActionsEv@ABI_5_1 17.12.1
 _ZNK12KPIMTextEdit16RichTextComposer15quotePrefixNameEv@ABI_5_1 17.12.1
 _ZNK12KPIMTextEdit16RichTextComposer16defaultQuoteSignEv@ABI_5_1 17.12.1
 _ZNK12KPIMTextEdit16RichTextComposer16externalComposerEv@ABI_5_1 17.12.1
 _ZNK12KPIMTextEdit16RichTextComposer17composerControlerEv@ABI_5_1 17.12.1
 _ZNK12KPIMTextEdit16RichTextComposer18richTextActionListEv@ABI_5_1 17.12.1
 _ZNK12KPIMTextEdit16RichTextComposer21canInsertFromMimeDataEPK9QMimeData@ABI_5_1 17.12.1
 _ZNK12KPIMTextEdit16RichTextComposer8textModeEv@ABI_5_1 17.12.1
 _ZNK12KPIMTextEdit17InsertImageDialog10imageWidthEv@ABI_5_1 17.12.1
 _ZNK12KPIMTextEdit17InsertImageDialog10metaObjectEv@ABI_5_1 17.12.1
 _ZNK12KPIMTextEdit17InsertImageDialog11imageHeightEv@ABI_5_1 17.12.1
 _ZNK12KPIMTextEdit17InsertImageDialog16keepOriginalSizeEv@ABI_5_1 17.12.1
 _ZNK12KPIMTextEdit17InsertImageDialog8imageUrlEv@ABI_5_1 17.12.1
 _ZNK12KPIMTextEdit17InsertImageWidget10imageWidthEv@ABI_5_1 17.12.1
 _ZNK12KPIMTextEdit17InsertImageWidget10metaObjectEv@ABI_5_1 17.12.1
 _ZNK12KPIMTextEdit17InsertImageWidget11imageHeightEv@ABI_5_1 17.12.1
 _ZNK12KPIMTextEdit17InsertImageWidget16keepOriginalSizeEv@ABI_5_1 17.12.1
 _ZNK12KPIMTextEdit17InsertImageWidget8imageUrlEv@ABI_5_1 17.12.1
 _ZNK12KPIMTextEdit17InsertTableDialog10metaObjectEv@ABI_5_1 17.12.1
 _ZNK12KPIMTextEdit17InsertTableDialog12typeOfLengthEv@ABI_5_1 17.12.1
 _ZNK12KPIMTextEdit17InsertTableDialog4rowsEv@ABI_5_1 17.12.1
 _ZNK12KPIMTextEdit17InsertTableDialog6borderEv@ABI_5_1 17.12.1
 _ZNK12KPIMTextEdit17InsertTableDialog6lengthEv@ABI_5_1 17.12.1
 _ZNK12KPIMTextEdit17InsertTableDialog7columnsEv@ABI_5_1 17.12.1
 _ZNK12KPIMTextEdit17InsertTableWidget10metaObjectEv@ABI_5_1 17.12.1
 _ZNK12KPIMTextEdit17InsertTableWidget12typeOfLengthEv@ABI_5_1 17.12.1
 _ZNK12KPIMTextEdit17InsertTableWidget4rowsEv@ABI_5_1 17.12.1
 _ZNK12KPIMTextEdit17InsertTableWidget6borderEv@ABI_5_1 17.12.1
 _ZNK12KPIMTextEdit17InsertTableWidget6lengthEv@ABI_5_1 17.12.1
 _ZNK12KPIMTextEdit17InsertTableWidget7columnsEv@ABI_5_1 17.12.1
 _ZNK12KPIMTextEdit17TableFormatDialog10metaObjectEv@ABI_5_1 17.12.1
 _ZNK12KPIMTextEdit17TableFormatDialog12typeOfLengthEv@ABI_5_1 17.12.1
 _ZNK12KPIMTextEdit17TableFormatDialog18useBackgroundColorEv@ABI_5_1 17.12.1
 _ZNK12KPIMTextEdit17TableFormatDialog20tableBackgroundColorEv@ABI_5_1 17.12.1
 _ZNK12KPIMTextEdit17TableFormatDialog4rowsEv@ABI_5_1 17.12.1
 _ZNK12KPIMTextEdit17TableFormatDialog6borderEv@ABI_5_1 17.12.1
 _ZNK12KPIMTextEdit17TableFormatDialog6lengthEv@ABI_5_1 17.12.1
 _ZNK12KPIMTextEdit17TableFormatDialog7columnsEv@ABI_5_1 17.12.1
 _ZNK12KPIMTextEdit17TableFormatDialog7paddingEv@ABI_5_1 17.12.1
 _ZNK12KPIMTextEdit17TableFormatDialog7spacingEv@ABI_5_1 17.12.1
 _ZNK12KPIMTextEdit17TableFormatDialog9alignmentEv@ABI_5_1 17.12.1
 _ZNK12KPIMTextEdit18TextGoToLineWidget10metaObjectEv@ABI_5_1 17.12.1
 _ZNK12KPIMTextEdit18TextToSpeechWidget10metaObjectEv@ABI_5_1 17.12.1
 _ZNK12KPIMTextEdit18TextToSpeechWidget5stateEv@ABI_5_1 17.12.1
 _ZNK12KPIMTextEdit18TextToSpeechWidget7isReadyEv@ABI_5_1 17.12.1
 _ZNK12KPIMTextEdit19RichTextEditFindBar10metaObjectEv@ABI_5_1 17.12.1
 _ZNK12KPIMTextEdit19RichTextEditFindBar14viewIsReadOnlyEv@ABI_5_1 17.12.1
 _ZNK12KPIMTextEdit19RichTextEditFindBar15documentIsEmptyEv@ABI_5_1 17.12.1
 _ZNK12KPIMTextEdit19TextEditFindBarBase10metaObjectEv@ABI_5_1 17.12.1
 _ZNK12KPIMTextEdit19TextEditFindBarBase4textEv@ABI_5_1 17.12.1
 _ZNK12KPIMTextEdit19TextEditorCompleter10metaObjectEv@ABI_5_1 17.12.1
 _ZNK12KPIMTextEdit19TextEditorCompleter26TextEditorCompleterPrivate15wordUnderCursorEv@ABI_5_1 17.12.1
 _ZNK12KPIMTextEdit19TextEditorCompleter9completerEv@ABI_5_1 17.12.1
 _ZNK12KPIMTextEdit19TextToSpeechActions10metaObjectEv@ABI_5_1 17.12.1
 _ZNK12KPIMTextEdit19TextToSpeechActions10stopActionEv@ABI_5_1 17.12.1
 _ZNK12KPIMTextEdit19TextToSpeechActions15playPauseActionEv@ABI_5_1 17.12.1
 _ZNK12KPIMTextEdit19TextToSpeechActions5stateEv@ABI_5_1 17.12.1
 _ZNK12KPIMTextEdit20PlainTextEditFindBar10metaObjectEv@ABI_5_1 17.12.1
 _ZNK12KPIMTextEdit20PlainTextEditFindBar14viewIsReadOnlyEv@ABI_5_1 17.12.1
 _ZNK12KPIMTextEdit20PlainTextEditFindBar15documentIsEmptyEv@ABI_5_1 17.12.1
 _ZNK12KPIMTextEdit20RichTextEditorWidget10isReadOnlyEv@ABI_5_1 17.12.1
 _ZNK12KPIMTextEdit20RichTextEditorWidget10metaObjectEv@ABI_5_1 17.12.1
 _ZNK12KPIMTextEdit20RichTextEditorWidget11toPlainTextEv@ABI_5_1 17.12.1
 _ZNK12KPIMTextEdit20RichTextEditorWidget14acceptRichTextEv@ABI_5_1 17.12.1
 _ZNK12KPIMTextEdit20RichTextEditorWidget6editorEv@ABI_5_1 17.12.1
 _ZNK12KPIMTextEdit20RichTextEditorWidget6toHtmlEv@ABI_5_1 17.12.1
 _ZNK12KPIMTextEdit20RichTextEditorWidget7isEmptyEv@ABI_5_1 17.12.1
 _ZNK12KPIMTextEdit21PlainTextEditorWidget10isReadOnlyEv@ABI_5_1 17.12.1
 _ZNK12KPIMTextEdit21PlainTextEditorWidget10metaObjectEv@ABI_5_1 17.12.1
 _ZNK12KPIMTextEdit21PlainTextEditorWidget11toPlainTextEv@ABI_5_1 17.12.1
 _ZNK12KPIMTextEdit21PlainTextEditorWidget6editorEv@ABI_5_1 17.12.1
 _ZNK12KPIMTextEdit21PlainTextEditorWidget7isEmptyEv@ABI_5_1 17.12.1
 _ZNK12KPIMTextEdit21TableCellFormatDialog10metaObjectEv@ABI_5_1 17.12.1
 _ZNK12KPIMTextEdit21TableCellFormatDialog17verticalAlignmentEv@ABI_5_1 17.12.1
 _ZNK12KPIMTextEdit21TableCellFormatDialog18useBackgroundColorEv@ABI_5_1 17.12.1
 _ZNK12KPIMTextEdit21TableCellFormatDialog24tableCellBackgroundColorEv@ABI_5_1 17.12.1
 _ZNK12KPIMTextEdit21TextToSpeechInterface10metaObjectEv@ABI_5_1 17.12.1
 _ZNK12KPIMTextEdit21TextToSpeechInterface6volumeEv@ABI_5_1 17.12.1
 _ZNK12KPIMTextEdit21TextToSpeechInterface7isReadyEv@ABI_5_1 17.12.1
 _ZNK12KPIMTextEdit22EmoticonTextEditAction10metaObjectEv@ABI_5_1 17.12.1
 _ZNK12KPIMTextEdit22RichTextComposerImages10metaObjectEv@ABI_5_1 17.12.1
 _ZNK12KPIMTextEdit22RichTextComposerImages14embeddedImagesEv@ABI_5_1 17.12.1
 _ZNK12KPIMTextEdit22RichTextComposerImages14imagesWithNameEv@ABI_5_1 17.12.1
 _ZNK12KPIMTextEdit22RichTextComposerImages20embeddedImageFormatsEv@ABI_5_1 17.12.1
 _ZNK12KPIMTextEdit22RichTextComposerWidget10metaObjectEv@ABI_5_1 17.12.1
 _ZNK12KPIMTextEdit22RichTextComposerWidget16richTextComposerEv@ABI_5_1 17.12.1
 _ZNK12KPIMTextEdit23RichTextComposerActions10metaObjectEv@ABI_5_1 17.12.1
 _ZNK12KPIMTextEdit23RichTextComposerActions15numberOfActionsEv@ABI_5_1 17.12.1
 _ZNK12KPIMTextEdit23RichTextComposerActions18richTextActionListEv@ABI_5_1 17.12.1
 _ZNK12KPIMTextEdit23SelectSpecialCharDialog10metaObjectEv@ABI_5_1 17.12.1
 _ZNK12KPIMTextEdit23SelectSpecialCharDialog11currentCharEv@ABI_5_1 17.12.1
 _ZNK12KPIMTextEdit24RichTextExternalComposer10metaObjectEv@ABI_5_1 17.12.1
 _ZNK12KPIMTextEdit24RichTextExternalComposer12isInProgressEv@ABI_5_1 17.12.1
 _ZNK12KPIMTextEdit24RichTextExternalComposer17useExternalEditorEv@ABI_5_1 17.12.1
 _ZNK12KPIMTextEdit24RichTextExternalComposer18externalEditorPathEv@ABI_5_1 17.12.1
 _ZNK12KPIMTextEdit24TextToSpeechConfigDialog10metaObjectEv@ABI_5_1 17.12.1
 _ZNK12KPIMTextEdit24TextToSpeechConfigWidget10metaObjectEv@ABI_5_1 17.12.1
 _ZNK12KPIMTextEdit25RichTextComposerControler10metaObjectEv@ABI_5_1 17.12.1
 _ZNK12KPIMTextEdit25RichTextComposerControler11toCleanHtmlEv@ABI_5_1 17.12.1
 _ZNK12KPIMTextEdit25RichTextComposerControler13canDedentListEv@ABI_5_1 17.12.1
 _ZNK12KPIMTextEdit25RichTextComposerControler13canIndentListEv@ABI_5_1 17.12.1
 _ZNK12KPIMTextEdit25RichTextComposerControler13painterActiveEv@ABI_5_1 17.12.1
 _ZNK12KPIMTextEdit25RichTextComposerControler14composerImagesEv@ABI_5_1 17.12.1
 _ZNK12KPIMTextEdit25RichTextComposerControler14currentLinkUrlEv@ABI_5_1 17.12.1
 _ZNK12KPIMTextEdit25RichTextComposerControler14selectLinkTextEv@ABI_5_1 17.12.1
 _ZNK12KPIMTextEdit25RichTextComposerControler15currentLinkTextEv@ABI_5_1 17.12.1
 _ZNK12KPIMTextEdit25RichTextComposerControler16isFormattingUsedEv@ABI_5_1 17.12.1
 _ZNK12KPIMTextEdit25RichTextComposerControler16nestedListHelperEv@ABI_5_1 17.12.1
 _ZNK12KPIMTextEdit25RichTextComposerControler16richTextComposerEv@ABI_5_1 17.12.1
 _ZNK12KPIMTextEdit25RichTextComposerControler16toCleanPlainTextERK7QString@ABI_5_1 17.12.1
 _ZNK12KPIMTextEdit25RichTextComposerControler18toWrappedPlainTextEP13QTextDocument@ABI_5_1 17.12.1
 _ZNK12KPIMTextEdit25RichTextComposerControler18toWrappedPlainTextEv@ABI_5_1 17.12.1
 _ZNK12KPIMTextEdit27TextToSpeechConfigInterface10metaObjectEv@ABI_5_1 17.12.1
 _ZNK12KPIMTextEdit27TextToSpeechConfigInterface15availableVoicesEv@ABI_5_1 17.12.1
 _ZNK12KPIMTextEdit27TextToSpeechConfigInterface16availableEnginesEv@ABI_5_1 17.12.1
 _ZNK12KPIMTextEdit27TextToSpeechConfigInterface16availableLocalesEv@ABI_5_1 17.12.1
 _ZNK12KPIMTextEdit27TextToSpeechConfigInterface6localeEv@ABI_5_1 17.12.1
 _ZNK12KPIMTextEdit29AbstractTextToSpeechInterface10metaObjectEv@ABI_5_1 17.12.1
 _ZNK12KPIMTextEdit29AbstractTextToSpeechInterface6volumeEv@ABI_5_1 17.12.1
 _ZNK12KPIMTextEdit29AbstractTextToSpeechInterface7isReadyEv@ABI_5_1 17.12.1
 _ZNK12KPIMTextEdit35AbstractTextToSpeechConfigInterface10metaObjectEv@ABI_5_1 17.12.1
 _ZNK12KPIMTextEdit35AbstractTextToSpeechConfigInterface15availableVoicesEv@ABI_5_1 17.12.1
 _ZNK12KPIMTextEdit35AbstractTextToSpeechConfigInterface16availableEnginesEv@ABI_5_1 17.12.1
 _ZNK12KPIMTextEdit35AbstractTextToSpeechConfigInterface16availableLocalesEv@ABI_5_1 17.12.1
 _ZNK12KPIMTextEdit35AbstractTextToSpeechConfigInterface6localeEv@ABI_5_1 17.12.1
 _ZNK12KPIMTextEdit35RichTextComposerEmailQuoteDecorator30isSpellCheckingEnabledForBlockERK7QString@ABI_5_1 17.12.1
 _ZNK12KPIMTextEdit37RichTextComposerEmailQuoteHighlighter10metaObjectEv@ABI_5_1 17.12.1
 _ZTIN12KPIMTextEdit12TextToSpeechE@ABI_5_1 17.12.1
 _ZTIN12KPIMTextEdit14RichTextEditorE@ABI_5_1 17.12.1
 _ZTIN12KPIMTextEdit14SlideContainerE@ABI_5_1 17.12.1
 _ZTIN12KPIMTextEdit15PlainTextEditorE@ABI_5_1 17.12.1
 _ZTIN12KPIMTextEdit15TableActionMenuE@ABI_5_1 17.12.1
 _ZTIN12KPIMTextEdit16InsertHtmlDialogE@ABI_5_1 17.12.1
 _ZTIN12KPIMTextEdit16RichTextComposerE@ABI_5_1 17.12.1
 _ZTIN12KPIMTextEdit17InsertImageDialogE@ABI_5_1 17.12.1
 _ZTIN12KPIMTextEdit17InsertImageWidgetE@ABI_5_1 17.12.1
 _ZTIN12KPIMTextEdit17InsertTableDialogE@ABI_5_1 17.12.1
 _ZTIN12KPIMTextEdit17InsertTableWidgetE@ABI_5_1 17.12.1
 _ZTIN12KPIMTextEdit17TableFormatDialogE@ABI_5_1 17.12.1
 _ZTIN12KPIMTextEdit18TextGoToLineWidgetE@ABI_5_1 17.12.1
 _ZTIN12KPIMTextEdit18TextToSpeechWidgetE@ABI_5_1 17.12.1
 _ZTIN12KPIMTextEdit19RichTextEditFindBarE@ABI_5_1 17.12.1
 _ZTIN12KPIMTextEdit19TextEditFindBarBaseE@ABI_5_1 17.12.1
 _ZTIN12KPIMTextEdit19TextEditorCompleterE@ABI_5_1 17.12.1
 _ZTIN12KPIMTextEdit19TextToSpeechActionsE@ABI_5_1 17.12.1
 _ZTIN12KPIMTextEdit20PlainTextEditFindBarE@ABI_5_1 17.12.1
 _ZTIN12KPIMTextEdit20RichTextEditorWidgetE@ABI_5_1 17.12.1
 _ZTIN12KPIMTextEdit21PlainTextEditorWidgetE@ABI_5_1 17.12.1
 _ZTIN12KPIMTextEdit21TableCellFormatDialogE@ABI_5_1 17.12.1
 _ZTIN12KPIMTextEdit21TextToSpeechInterfaceE@ABI_5_1 17.12.1
 _ZTIN12KPIMTextEdit22EmoticonTextEditActionE@ABI_5_1 17.12.1
 _ZTIN12KPIMTextEdit22RichTextComposerImagesE@ABI_5_1 17.12.1
 _ZTIN12KPIMTextEdit22RichTextComposerWidgetE@ABI_5_1 17.12.1
 _ZTIN12KPIMTextEdit23RichTextComposerActionsE@ABI_5_1 17.12.1
 _ZTIN12KPIMTextEdit23SelectSpecialCharDialogE@ABI_5_1 17.12.1
 _ZTIN12KPIMTextEdit24RichTextExternalComposerE@ABI_5_1 17.12.1
 _ZTIN12KPIMTextEdit24TextToSpeechConfigDialogE@ABI_5_1 17.12.1
 _ZTIN12KPIMTextEdit24TextToSpeechConfigWidgetE@ABI_5_1 17.12.1
 _ZTIN12KPIMTextEdit25RichTextComposerControlerE@ABI_5_1 17.12.1
 _ZTIN12KPIMTextEdit27TextToSpeechConfigInterfaceE@ABI_5_1 17.12.1
 _ZTIN12KPIMTextEdit29AbstractTextToSpeechInterfaceE@ABI_5_1 17.12.1
 _ZTIN12KPIMTextEdit35AbstractTextToSpeechConfigInterfaceE@ABI_5_1 17.12.1
 _ZTIN12KPIMTextEdit35RichTextComposerEmailQuoteDecoratorE@ABI_5_1 17.12.1
 _ZTIN12KPIMTextEdit37RichTextComposerEmailQuoteHighlighterE@ABI_5_1 17.12.1
 _ZTIN12KPIMTextEdit39PlainTextSyntaxSpellCheckingHighlighterE@ABI_5_1 17.12.1
 _ZTSN12KPIMTextEdit12TextToSpeechE@ABI_5_1 17.12.1
 _ZTSN12KPIMTextEdit14RichTextEditorE@ABI_5_1 17.12.1
 _ZTSN12KPIMTextEdit14SlideContainerE@ABI_5_1 17.12.1
 _ZTSN12KPIMTextEdit15PlainTextEditorE@ABI_5_1 17.12.1
 _ZTSN12KPIMTextEdit15TableActionMenuE@ABI_5_1 17.12.1
 _ZTSN12KPIMTextEdit16InsertHtmlDialogE@ABI_5_1 17.12.1
 _ZTSN12KPIMTextEdit16RichTextComposerE@ABI_5_1 17.12.1
 _ZTSN12KPIMTextEdit17InsertImageDialogE@ABI_5_1 17.12.1
 _ZTSN12KPIMTextEdit17InsertImageWidgetE@ABI_5_1 17.12.1
 _ZTSN12KPIMTextEdit17InsertTableDialogE@ABI_5_1 17.12.1
 _ZTSN12KPIMTextEdit17InsertTableWidgetE@ABI_5_1 17.12.1
 _ZTSN12KPIMTextEdit17TableFormatDialogE@ABI_5_1 17.12.1
 _ZTSN12KPIMTextEdit18TextGoToLineWidgetE@ABI_5_1 17.12.1
 _ZTSN12KPIMTextEdit18TextToSpeechWidgetE@ABI_5_1 17.12.1
 _ZTSN12KPIMTextEdit19RichTextEditFindBarE@ABI_5_1 17.12.1
 _ZTSN12KPIMTextEdit19TextEditFindBarBaseE@ABI_5_1 17.12.1
 _ZTSN12KPIMTextEdit19TextEditorCompleterE@ABI_5_1 17.12.1
 _ZTSN12KPIMTextEdit19TextToSpeechActionsE@ABI_5_1 17.12.1
 _ZTSN12KPIMTextEdit20PlainTextEditFindBarE@ABI_5_1 17.12.1
 _ZTSN12KPIMTextEdit20RichTextEditorWidgetE@ABI_5_1 17.12.1
 _ZTSN12KPIMTextEdit21PlainTextEditorWidgetE@ABI_5_1 17.12.1
 _ZTSN12KPIMTextEdit21TableCellFormatDialogE@ABI_5_1 17.12.1
 _ZTSN12KPIMTextEdit21TextToSpeechInterfaceE@ABI_5_1 17.12.1
 _ZTSN12KPIMTextEdit22EmoticonTextEditActionE@ABI_5_1 17.12.1
 _ZTSN12KPIMTextEdit22RichTextComposerImagesE@ABI_5_1 17.12.1
 _ZTSN12KPIMTextEdit22RichTextComposerWidgetE@ABI_5_1 17.12.1
 _ZTSN12KPIMTextEdit23RichTextComposerActionsE@ABI_5_1 17.12.1
 _ZTSN12KPIMTextEdit23SelectSpecialCharDialogE@ABI_5_1 17.12.1
 _ZTSN12KPIMTextEdit24RichTextExternalComposerE@ABI_5_1 17.12.1
 _ZTSN12KPIMTextEdit24TextToSpeechConfigDialogE@ABI_5_1 17.12.1
 _ZTSN12KPIMTextEdit24TextToSpeechConfigWidgetE@ABI_5_1 17.12.1
 _ZTSN12KPIMTextEdit25RichTextComposerControlerE@ABI_5_1 17.12.1
 _ZTSN12KPIMTextEdit27TextToSpeechConfigInterfaceE@ABI_5_1 17.12.1
 _ZTSN12KPIMTextEdit29AbstractTextToSpeechInterfaceE@ABI_5_1 17.12.1
 _ZTSN12KPIMTextEdit35AbstractTextToSpeechConfigInterfaceE@ABI_5_1 17.12.1
 _ZTSN12KPIMTextEdit35RichTextComposerEmailQuoteDecoratorE@ABI_5_1 17.12.1
 _ZTSN12KPIMTextEdit37RichTextComposerEmailQuoteHighlighterE@ABI_5_1 17.12.1
 _ZTSN12KPIMTextEdit39PlainTextSyntaxSpellCheckingHighlighterE@ABI_5_1 17.12.1
 _ZTVN12KPIMTextEdit12TextToSpeechE@ABI_5_1 17.12.1
 _ZTVN12KPIMTextEdit14RichTextEditorE@ABI_5_1 17.12.1
 _ZTVN12KPIMTextEdit14SlideContainerE@ABI_5_1 17.12.1
 _ZTVN12KPIMTextEdit15PlainTextEditorE@ABI_5_1 17.12.1
 _ZTVN12KPIMTextEdit15TableActionMenuE@ABI_5_1 17.12.1
 _ZTVN12KPIMTextEdit16InsertHtmlDialogE@ABI_5_1 17.12.1
 _ZTVN12KPIMTextEdit16RichTextComposerE@ABI_5_1 17.12.1
 _ZTVN12KPIMTextEdit17InsertImageDialogE@ABI_5_1 17.12.1
 _ZTVN12KPIMTextEdit17InsertImageWidgetE@ABI_5_1 17.12.1
 _ZTVN12KPIMTextEdit17InsertTableDialogE@ABI_5_1 17.12.1
 _ZTVN12KPIMTextEdit17InsertTableWidgetE@ABI_5_1 17.12.1
 _ZTVN12KPIMTextEdit17TableFormatDialogE@ABI_5_1 17.12.1
 _ZTVN12KPIMTextEdit18TextGoToLineWidgetE@ABI_5_1 17.12.1
 _ZTVN12KPIMTextEdit18TextToSpeechWidgetE@ABI_5_1 17.12.1
 _ZTVN12KPIMTextEdit19RichTextEditFindBarE@ABI_5_1 17.12.1
 _ZTVN12KPIMTextEdit19TextEditFindBarBaseE@ABI_5_1 17.12.1
 _ZTVN12KPIMTextEdit19TextEditorCompleterE@ABI_5_1 17.12.1
 _ZTVN12KPIMTextEdit19TextToSpeechActionsE@ABI_5_1 17.12.1
 _ZTVN12KPIMTextEdit20PlainTextEditFindBarE@ABI_5_1 17.12.1
 _ZTVN12KPIMTextEdit20RichTextEditorWidgetE@ABI_5_1 17.12.1
 _ZTVN12KPIMTextEdit21PlainTextEditorWidgetE@ABI_5_1 17.12.1
 _ZTVN12KPIMTextEdit21TableCellFormatDialogE@ABI_5_1 17.12.1
 _ZTVN12KPIMTextEdit21TextToSpeechInterfaceE@ABI_5_1 17.12.1
 _ZTVN12KPIMTextEdit22EmoticonTextEditActionE@ABI_5_1 17.12.1
 _ZTVN12KPIMTextEdit22RichTextComposerImagesE@ABI_5_1 17.12.1
 _ZTVN12KPIMTextEdit22RichTextComposerWidgetE@ABI_5_1 17.12.1
 _ZTVN12KPIMTextEdit23RichTextComposerActionsE@ABI_5_1 17.12.1
 _ZTVN12KPIMTextEdit23SelectSpecialCharDialogE@ABI_5_1 17.12.1
 _ZTVN12KPIMTextEdit24RichTextExternalComposerE@ABI_5_1 17.12.1
 _ZTVN12KPIMTextEdit24TextToSpeechConfigDialogE@ABI_5_1 17.12.1
 _ZTVN12KPIMTextEdit24TextToSpeechConfigWidgetE@ABI_5_1 17.12.1
 _ZTVN12KPIMTextEdit25RichTextComposerControlerE@ABI_5_1 17.12.1
 _ZTVN12KPIMTextEdit27TextToSpeechConfigInterfaceE@ABI_5_1 17.12.1
 _ZTVN12KPIMTextEdit29AbstractTextToSpeechInterfaceE@ABI_5_1 17.12.1
 _ZTVN12KPIMTextEdit35AbstractTextToSpeechConfigInterfaceE@ABI_5_1 17.12.1
 _ZTVN12KPIMTextEdit35RichTextComposerEmailQuoteDecoratorE@ABI_5_1 17.12.1
 _ZTVN12KPIMTextEdit37RichTextComposerEmailQuoteHighlighterE@ABI_5_1 17.12.1
 _ZTVN12KPIMTextEdit39PlainTextSyntaxSpellCheckingHighlighterE@ABI_5_1 17.12.1
 (c++)"non-virtual thunk to KPIMTextEdit::InsertHtmlDialog::~InsertHtmlDialog()@ABI_5_1" 17.12.1
 (c++)"non-virtual thunk to KPIMTextEdit::InsertImageDialog::~InsertImageDialog()@ABI_5_1" 17.12.1
 (c++)"non-virtual thunk to KPIMTextEdit::InsertImageWidget::~InsertImageWidget()@ABI_5_1" 17.12.1
 (c++)"non-virtual thunk to KPIMTextEdit::InsertTableDialog::~InsertTableDialog()@ABI_5_1" 17.12.1
 (c++)"non-virtual thunk to KPIMTextEdit::InsertTableWidget::~InsertTableWidget()@ABI_5_1" 17.12.1
 (c++)"non-virtual thunk to KPIMTextEdit::PlainTextEditFindBar::~PlainTextEditFindBar()@ABI_5_1" 17.12.1
 (c++)"non-virtual thunk to KPIMTextEdit::PlainTextEditor::~PlainTextEditor()@ABI_5_1" 17.12.1
 (c++)"non-virtual thunk to KPIMTextEdit::PlainTextEditorWidget::~PlainTextEditorWidget()@ABI_5_1" 17.12.1
 (c++)"non-virtual thunk to KPIMTextEdit::PlainTextSyntaxSpellCheckingHighlighter::applyFormat(int, int, KSyntaxHighlighting::Format const&)@ABI_5_1" 17.12.1
 (c++)"non-virtual thunk to KPIMTextEdit::PlainTextSyntaxSpellCheckingHighlighter::setDefinition(KSyntaxHighlighting::Definition const&)@ABI_5_1" 17.12.1
 (c++)"non-virtual thunk to KPIMTextEdit::PlainTextSyntaxSpellCheckingHighlighter::~PlainTextSyntaxSpellCheckingHighlighter()@ABI_5_1" 17.12.1
 (c++)"non-virtual thunk to KPIMTextEdit::RichTextComposer::~RichTextComposer()@ABI_5_1" 17.12.1
 (c++)"non-virtual thunk to KPIMTextEdit::RichTextComposerWidget::~RichTextComposerWidget()@ABI_5_1" 17.12.1
 (c++)"non-virtual thunk to KPIMTextEdit::RichTextEditFindBar::~RichTextEditFindBar()@ABI_5_1" 17.12.1
 (c++)"non-virtual thunk to KPIMTextEdit::RichTextEditor::~RichTextEditor()@ABI_5_1" 17.12.1
 (c++)"non-virtual thunk to KPIMTextEdit::RichTextEditorWidget::~RichTextEditorWidget()@ABI_5_1" 17.12.1
 (c++)"non-virtual thunk to KPIMTextEdit::SelectSpecialCharDialog::~SelectSpecialCharDialog()@ABI_5_1" 17.12.1
 (c++)"non-virtual thunk to KPIMTextEdit::TableCellFormatDialog::~TableCellFormatDialog()@ABI_5_1" 17.12.1
 (c++)"non-virtual thunk to KPIMTextEdit::TableFormatDialog::~TableFormatDialog()@ABI_5_1" 17.12.1
 (c++)"non-virtual thunk to KPIMTextEdit::TextEditFindBarBase::~TextEditFindBarBase()@ABI_5_1" 17.12.1
 (c++)"non-virtual thunk to KPIMTextEdit::TextGoToLineWidget::~TextGoToLineWidget()@ABI_5_1" 17.12.1
 (c++)"non-virtual thunk to KPIMTextEdit::TextToSpeechConfigDialog::~TextToSpeechConfigDialog()@ABI_5_1" 17.12.1
 (c++)"non-virtual thunk to KPIMTextEdit::TextToSpeechConfigWidget::~TextToSpeechConfigWidget()@ABI_5_1" 17.12.1
 (c++)"non-virtual thunk to KPIMTextEdit::TextToSpeechWidget::~TextToSpeechWidget()@ABI_5_1" 17.12.1
