# SymbolsHelper-Confirmed: 15.07.90 amd64
libKF5PimTextEdit.so.5 libkf5pimtextedit5 #MINVER#
 _ZN12KPIMTextEdit15HtmlHighlighter11qt_metacallEN11QMetaObject4CallEiPPv@Base 15.07.90
 _ZN12KPIMTextEdit15HtmlHighlighter11qt_metacastEPKc@Base 15.07.90
 _ZN12KPIMTextEdit15HtmlHighlighter14highlightBlockERK7QString@Base 15.07.90
 _ZN12KPIMTextEdit15HtmlHighlighter16staticMetaObjectE@Base 15.07.90
 _ZN12KPIMTextEdit15HtmlHighlighterC1EP13QTextDocument@Base 15.07.90
 _ZN12KPIMTextEdit15HtmlHighlighterC2EP13QTextDocument@Base 15.07.90
 _ZN12KPIMTextEdit15HtmlHighlighterD0Ev@Base 15.07.90
 _ZN12KPIMTextEdit15HtmlHighlighterD1Ev@Base 15.07.90
 _ZN12KPIMTextEdit15HtmlHighlighterD2Ev@Base 15.07.90
 _ZN12KPIMTextEdit15TableActionMenu11qt_metacallEN11QMetaObject4CallEiPPv@Base 15.07.90
 _ZN12KPIMTextEdit15TableActionMenu11qt_metacastEPKc@Base 15.07.90
 _ZN12KPIMTextEdit15TableActionMenu15setRichTextModeEb@Base 15.07.90
 _ZN12KPIMTextEdit15TableActionMenu16staticMetaObjectE@Base 15.07.90
 _ZN12KPIMTextEdit15TableActionMenuC1EP9QTextEdit@Base 15.07.90
 _ZN12KPIMTextEdit15TableActionMenuC2EP9QTextEdit@Base 15.07.90
 _ZN12KPIMTextEdit15TableActionMenuD0Ev@Base 15.07.90
 _ZN12KPIMTextEdit15TableActionMenuD1Ev@Base 15.07.90
 _ZN12KPIMTextEdit15TableActionMenuD2Ev@Base 15.07.90
 _ZN12KPIMTextEdit16InsertHtmlDialog11qt_metacallEN11QMetaObject4CallEiPPv@Base 15.07.90
 _ZN12KPIMTextEdit16InsertHtmlDialog11qt_metacastEPKc@Base 15.07.90
 _ZN12KPIMTextEdit16InsertHtmlDialog16staticMetaObjectE@Base 15.07.90
 _ZN12KPIMTextEdit16InsertHtmlDialogC1EP7QWidget@Base 15.07.90
 _ZN12KPIMTextEdit16InsertHtmlDialogC2EP7QWidget@Base 15.07.90
 _ZN12KPIMTextEdit16InsertHtmlDialogD0Ev@Base 15.07.90
 _ZN12KPIMTextEdit16InsertHtmlDialogD1Ev@Base 15.07.90
 _ZN12KPIMTextEdit16InsertHtmlDialogD2Ev@Base 15.07.90
 _ZN12KPIMTextEdit17InsertImageDialog11qt_metacallEN11QMetaObject4CallEiPPv@Base 15.07.90
 _ZN12KPIMTextEdit17InsertImageDialog11qt_metacastEPKc@Base 15.07.90
 _ZN12KPIMTextEdit17InsertImageDialog11setImageUrlERK4QUrl@Base 15.07.90
 _ZN12KPIMTextEdit17InsertImageDialog13setImageWidthEi@Base 15.07.90
 _ZN12KPIMTextEdit17InsertImageDialog14setImageHeightEi@Base 15.07.90
 _ZN12KPIMTextEdit17InsertImageDialog16staticMetaObjectE@Base 15.07.90
 _ZN12KPIMTextEdit17InsertImageDialogC1EP7QWidget@Base 15.07.90
 _ZN12KPIMTextEdit17InsertImageDialogC2EP7QWidget@Base 15.07.90
 _ZN12KPIMTextEdit17InsertImageDialogD0Ev@Base 15.07.90
 _ZN12KPIMTextEdit17InsertImageDialogD1Ev@Base 15.07.90
 _ZN12KPIMTextEdit17InsertImageDialogD2Ev@Base 15.07.90
 _ZN12KPIMTextEdit17InsertImageWidget11qt_metacallEN11QMetaObject4CallEiPPv@Base 15.07.90
 _ZN12KPIMTextEdit17InsertImageWidget11qt_metacastEPKc@Base 15.07.90
 _ZN12KPIMTextEdit17InsertImageWidget11setImageUrlERK4QUrl@Base 15.07.90
 _ZN12KPIMTextEdit17InsertImageWidget13setImageWidthEi@Base 15.07.90
 _ZN12KPIMTextEdit17InsertImageWidget14enableButtonOkEb@Base 15.07.90
 _ZN12KPIMTextEdit17InsertImageWidget14setImageHeightEi@Base 15.07.90
 _ZN12KPIMTextEdit17InsertImageWidget16staticMetaObjectE@Base 15.07.90
 _ZN12KPIMTextEdit17InsertImageWidgetC1EP7QWidget@Base 15.07.90
 _ZN12KPIMTextEdit17InsertImageWidgetC2EP7QWidget@Base 15.07.90
 _ZN12KPIMTextEdit17InsertImageWidgetD0Ev@Base 15.07.90
 _ZN12KPIMTextEdit17InsertImageWidgetD1Ev@Base 15.07.90
 _ZN12KPIMTextEdit17InsertImageWidgetD2Ev@Base 15.07.90
 _ZN12KPIMTextEdit17InsertTableDialog10setColumnsEi@Base 15.07.90
 _ZN12KPIMTextEdit17InsertTableDialog15setTypeOfLengthEN11QTextLength4TypeE@Base 15.07.90
 _ZN12KPIMTextEdit17InsertTableDialog7setRowsEi@Base 15.07.90
 _ZN12KPIMTextEdit17InsertTableDialog9setBorderEi@Base 15.07.90
 _ZN12KPIMTextEdit17InsertTableDialog9setLengthEi@Base 15.07.90
 _ZN12KPIMTextEdit17InsertTableDialogC1EP7QWidget@Base 15.07.90
 _ZN12KPIMTextEdit17InsertTableDialogC2EP7QWidget@Base 15.07.90
 _ZN12KPIMTextEdit17InsertTableDialogD0Ev@Base 15.07.90
 _ZN12KPIMTextEdit17InsertTableDialogD1Ev@Base 15.07.90
 _ZN12KPIMTextEdit17InsertTableDialogD2Ev@Base 15.07.90
 _ZN12KPIMTextEdit17InsertTableWidget10setColumnsEi@Base 15.07.90
 _ZN12KPIMTextEdit17InsertTableWidget11qt_metacallEN11QMetaObject4CallEiPPv@Base 15.07.90
 _ZN12KPIMTextEdit17InsertTableWidget11qt_metacastEPKc@Base 15.07.90
 _ZN12KPIMTextEdit17InsertTableWidget15setTypeOfLengthEN11QTextLength4TypeE@Base 15.07.90
 _ZN12KPIMTextEdit17InsertTableWidget16staticMetaObjectE@Base 15.07.90
 _ZN12KPIMTextEdit17InsertTableWidget23slotTypeOfLengthChangedEi@Base 15.07.90
 _ZN12KPIMTextEdit17InsertTableWidget7setRowsEi@Base 15.07.90
 _ZN12KPIMTextEdit17InsertTableWidget9setBorderEi@Base 15.07.90
 _ZN12KPIMTextEdit17InsertTableWidget9setLengthEi@Base 15.07.90
 _ZN12KPIMTextEdit17InsertTableWidgetC1EP7QWidget@Base 15.07.90
 _ZN12KPIMTextEdit17InsertTableWidgetC2EP7QWidget@Base 15.07.90
 _ZN12KPIMTextEdit17InsertTableWidgetD0Ev@Base 15.07.90
 _ZN12KPIMTextEdit17InsertTableWidgetD1Ev@Base 15.07.90
 _ZN12KPIMTextEdit17InsertTableWidgetD2Ev@Base 15.07.90
 _ZN12KPIMTextEdit17TableFormatDialog10setColumnsEi@Base 15.07.90
 _ZN12KPIMTextEdit17TableFormatDialog10setPaddingEi@Base 15.07.90
 _ZN12KPIMTextEdit17TableFormatDialog10setSpacingEi@Base 15.07.90
 _ZN12KPIMTextEdit17TableFormatDialog12setAlignmentE6QFlagsIN2Qt13AlignmentFlagEE@Base 15.07.90
 _ZN12KPIMTextEdit17TableFormatDialog15setTypeOfLengthEN11QTextLength4TypeE@Base 15.07.90
 _ZN12KPIMTextEdit17TableFormatDialog23setTableBackgroundColorERK6QColor@Base 15.07.90
 _ZN12KPIMTextEdit17TableFormatDialog7setRowsEi@Base 15.07.90
 _ZN12KPIMTextEdit17TableFormatDialog9setBorderEi@Base 15.07.90
 _ZN12KPIMTextEdit17TableFormatDialog9setLengthEi@Base 15.07.90
 _ZN12KPIMTextEdit17TableFormatDialogC1EP7QWidget@Base 15.07.90
 _ZN12KPIMTextEdit17TableFormatDialogC2EP7QWidget@Base 15.07.90
 _ZN12KPIMTextEdit17TableFormatDialogD0Ev@Base 15.07.90
 _ZN12KPIMTextEdit17TableFormatDialogD1Ev@Base 15.07.90
 _ZN12KPIMTextEdit17TableFormatDialogD2Ev@Base 15.07.90
 _ZN12KPIMTextEdit19EmailQuoteDecoratorC1EP9KTextEdit@Base 15.07.90
 _ZN12KPIMTextEdit19EmailQuoteDecoratorC2EP9KTextEdit@Base 15.07.90
 _ZN12KPIMTextEdit19EmailQuoteDecoratorD0Ev@Base 15.07.90
 _ZN12KPIMTextEdit19EmailQuoteDecoratorD1Ev@Base 15.07.90
 _ZN12KPIMTextEdit19EmailQuoteDecoratorD2Ev@Base 15.07.90
 _ZN12KPIMTextEdit19TextEditorCompleter11qt_metacallEN11QMetaObject4CallEiPPv@Base 15.07.90
 _ZN12KPIMTextEdit19TextEditorCompleter11qt_metacastEPKc@Base 15.07.90
 _ZN12KPIMTextEdit19TextEditorCompleter12completeTextEv@Base 15.07.90
 _ZN12KPIMTextEdit19TextEditorCompleter14slotCompletionERK7QString@Base 15.07.90
 _ZN12KPIMTextEdit19TextEditorCompleter16staticMetaObjectE@Base 15.07.90
 _ZN12KPIMTextEdit19TextEditorCompleter22setCompleterStringListERK11QStringList@Base 15.07.90
 _ZN12KPIMTextEdit19TextEditorCompleter22setExcludeOfCharactersERK7QString@Base 15.07.90
 _ZN12KPIMTextEdit19TextEditorCompleter26TextEditorCompleterPrivate12completeTextEv@Base 15.07.90
 _ZN12KPIMTextEdit19TextEditorCompleter26TextEditorCompleterPrivate13setCompletionERK7QString@Base 15.07.90
 _ZN12KPIMTextEdit19TextEditorCompleter26TextEditorCompleterPrivate15createCompleterEv@Base 15.07.90
 _ZN12KPIMTextEdit19TextEditorCompleterC1EP14QPlainTextEditP7QObject@Base 15.07.90
 _ZN12KPIMTextEdit19TextEditorCompleterC1EP9QTextEditP7QObject@Base 15.07.90
 _ZN12KPIMTextEdit19TextEditorCompleterC2EP14QPlainTextEditP7QObject@Base 15.07.90
 _ZN12KPIMTextEdit19TextEditorCompleterC2EP9QTextEditP7QObject@Base 15.07.90
 _ZN12KPIMTextEdit19TextEditorCompleterD0Ev@Base 15.07.90
 _ZN12KPIMTextEdit19TextEditorCompleterD1Ev@Base 15.07.90
 _ZN12KPIMTextEdit19TextEditorCompleterD2Ev@Base 15.07.90
 _ZN12KPIMTextEdit21EMailQuoteHighlighter13highlightTextERK7QStringRK6QColorS6_S6_@Base 15.07.90
 _ZN12KPIMTextEdit21EMailQuoteHighlighter13setMisspelledEii@Base 15.07.90
 _ZN12KPIMTextEdit21EMailQuoteHighlighter13setQuoteColorERK6QColorS3_S3_S3_S3_@Base 15.07.90
 _ZN12KPIMTextEdit21EMailQuoteHighlighter14highlightBlockERK7QString@Base 15.07.90
 _ZN12KPIMTextEdit21EMailQuoteHighlighter15unsetMisspelledEii@Base 15.07.90
 _ZN12KPIMTextEdit21EMailQuoteHighlighter18highlightParagraphERK7QStringRK6QColorS6_S6_@Base 15.07.90
 _ZN12KPIMTextEdit21EMailQuoteHighlighter23toggleSpellHighlightingEb@Base 15.07.90
 _ZN12KPIMTextEdit21EMailQuoteHighlighterC1EPNS_8TextEditERK6QColorS5_S5_S5_S5_@Base 15.07.90
 _ZN12KPIMTextEdit21EMailQuoteHighlighterC2EPNS_8TextEditERK6QColorS5_S5_S5_S5_@Base 15.07.90
 _ZN12KPIMTextEdit21EMailQuoteHighlighterD0Ev@Base 15.07.90
 _ZN12KPIMTextEdit21EMailQuoteHighlighterD1Ev@Base 15.07.90
 _ZN12KPIMTextEdit21EMailQuoteHighlighterD2Ev@Base 15.07.90
 _ZN12KPIMTextEdit21SyntaxHighlighterBase11qt_metacallEN11QMetaObject4CallEiPPv@Base 15.07.90
 _ZN12KPIMTextEdit21SyntaxHighlighterBase11qt_metacastEPKc@Base 15.07.90
 _ZN12KPIMTextEdit21SyntaxHighlighterBase14highlightBlockERK7QString@Base 15.07.90
 _ZN12KPIMTextEdit21SyntaxHighlighterBase16staticMetaObjectE@Base 15.07.90
 _ZN12KPIMTextEdit21SyntaxHighlighterBaseC1EP13QTextDocument@Base 15.07.90
 _ZN12KPIMTextEdit21SyntaxHighlighterBaseC2EP13QTextDocument@Base 15.07.90
 _ZN12KPIMTextEdit21SyntaxHighlighterBaseD0Ev@Base 15.07.90
 _ZN12KPIMTextEdit21SyntaxHighlighterBaseD1Ev@Base 15.07.90
 _ZN12KPIMTextEdit21SyntaxHighlighterBaseD2Ev@Base 15.07.90
 _ZN12KPIMTextEdit21TableCellFormatDialog20setVerticalAlignmentEN15QTextCharFormat17VerticalAlignmentE@Base 15.07.90
 _ZN12KPIMTextEdit21TableCellFormatDialog27setTableCellBackgroundColorERK6QColor@Base 15.07.90
 _ZN12KPIMTextEdit21TableCellFormatDialogC1EP7QWidget@Base 15.07.90
 _ZN12KPIMTextEdit21TableCellFormatDialogC2EP7QWidget@Base 15.07.90
 _ZN12KPIMTextEdit21TableCellFormatDialogD0Ev@Base 15.07.90
 _ZN12KPIMTextEdit21TableCellFormatDialogD1Ev@Base 15.07.90
 _ZN12KPIMTextEdit21TableCellFormatDialogD2Ev@Base 15.07.90
 _ZN12KPIMTextEdit22EmoticonTextEditAction11qt_metacallEN11QMetaObject4CallEiPPv@Base 15.07.90
 _ZN12KPIMTextEdit22EmoticonTextEditAction11qt_metacastEPKc@Base 15.07.90
 _ZN12KPIMTextEdit22EmoticonTextEditAction16staticMetaObjectE@Base 15.07.90
 _ZN12KPIMTextEdit22EmoticonTextEditAction17emoticonActivatedERK7QString@Base 15.07.90
 _ZN12KPIMTextEdit22EmoticonTextEditActionC1EP7QObject@Base 15.07.90
 _ZN12KPIMTextEdit22EmoticonTextEditActionC2EP7QObject@Base 15.07.90
 _ZN12KPIMTextEdit22EmoticonTextEditActionD0Ev@Base 15.07.90
 _ZN12KPIMTextEdit22EmoticonTextEditActionD1Ev@Base 15.07.90
 _ZN12KPIMTextEdit22EmoticonTextEditActionD2Ev@Base 15.07.90
 _ZN12KPIMTextEdit23SelectSpecialCharDialog11qt_metacallEN11QMetaObject4CallEiPPv@Base 15.07.90
 _ZN12KPIMTextEdit23SelectSpecialCharDialog11qt_metacastEPKc@Base 15.07.90
 _ZN12KPIMTextEdit23SelectSpecialCharDialog12charSelectedERK5QChar@Base 15.07.90
 _ZN12KPIMTextEdit23SelectSpecialCharDialog14autoInsertCharEv@Base 15.07.90
 _ZN12KPIMTextEdit23SelectSpecialCharDialog14setCurrentCharERK5QChar@Base 15.07.90
 _ZN12KPIMTextEdit23SelectSpecialCharDialog15setOkButtonTextERK7QString@Base 15.07.90
 _ZN12KPIMTextEdit23SelectSpecialCharDialog16showSelectButtonEb@Base 15.07.90
 _ZN12KPIMTextEdit23SelectSpecialCharDialog16staticMetaObjectE@Base 15.07.90
 _ZN12KPIMTextEdit23SelectSpecialCharDialogC1EP7QWidget@Base 15.07.90
 _ZN12KPIMTextEdit23SelectSpecialCharDialogC2EP7QWidget@Base 15.07.90
 _ZN12KPIMTextEdit23SelectSpecialCharDialogD0Ev@Base 15.07.90
 _ZN12KPIMTextEdit23SelectSpecialCharDialogD1Ev@Base 15.07.90
 _ZN12KPIMTextEdit23SelectSpecialCharDialogD2Ev@Base 15.07.90
 _ZN12KPIMTextEdit8TextEdit11eventFilterEP7QObjectP6QEvent@Base 15.07.90
 _ZN12KPIMTextEdit8TextEdit11insertImageERK6QImageRK9QFileInfo@Base 15.07.90
 _ZN12KPIMTextEdit8TextEdit11qt_metacallEN11QMetaObject4CallEiPPv@Base 15.07.90
 _ZN12KPIMTextEdit8TextEdit11qt_metacastEPKc@Base 15.07.90
 _ZN12KPIMTextEdit8TextEdit13createActionsEv@Base 15.07.90
 _ZN12KPIMTextEdit8TextEdit13keyPressEventEP9QKeyEvent@Base 15.07.90
 _ZN12KPIMTextEdit8TextEdit14addImageHelperERK4QUrlii@Base 15.07.90
 _ZN12KPIMTextEdit8TextEdit16staticMetaObjectE@Base 15.07.90
 _ZN12KPIMTextEdit8TextEdit17createHighlighterEv@Base 15.07.90
 _ZN12KPIMTextEdit8TextEdit17deleteCurrentLineEv@Base 15.07.90
 _ZN12KPIMTextEdit8TextEdit18enableImageActionsEv@Base 15.07.90
 _ZN12KPIMTextEdit8TextEdit18insertFromMimeDataEPK9QMimeData@Base 15.07.90
 _ZN12KPIMTextEdit8TextEdit20setHighlighterColorsEPNS_21EMailQuoteHighlighterE@Base 15.07.90
 _ZN12KPIMTextEdit8TextEdit21enableEmoticonActionsEv@Base 15.07.90
 _ZN12KPIMTextEdit8TextEdit22imageNamesToContentIdsERK10QByteArrayRK5QListI14QSharedPointerINS_13EmbeddedImageEEE@Base 15.07.90
 _ZN12KPIMTextEdit8TextEdit23enableInsertHtmlActionsEv@Base 15.07.90
 _ZN12KPIMTextEdit8TextEdit23setCheckSpellingEnabledEb@Base 15.07.90
 _ZN12KPIMTextEdit8TextEdit24enableInsertTableActionsEv@Base 15.07.90
 _ZN12KPIMTextEdit8TextEdit8addImageERK4QUrlii@Base 15.07.90
 _ZN12KPIMTextEdit8TextEdit9loadImageERK6QImageRK7QStringS6_@Base 15.07.90
 _ZN12KPIMTextEdit8TextEditC1EP7QWidgetRK7QString@Base 15.07.90
 _ZN12KPIMTextEdit8TextEditC1ERK7QStringP7QWidget@Base 15.07.90
 _ZN12KPIMTextEdit8TextEditC2EP7QWidgetRK7QString@Base 15.07.90
 _ZN12KPIMTextEdit8TextEditC2ERK7QStringP7QWidget@Base 15.07.90
 _ZN12KPIMTextEdit8TextEditD0Ev@Base 15.07.90
 _ZN12KPIMTextEdit8TextEditD1Ev@Base 15.07.90
 _ZN12KPIMTextEdit8TextEditD2Ev@Base 15.07.90
 _ZN12KPIMTextEdit9TextUtils18containsFormattingEPK13QTextDocument@Base 15.07.90
 _ZN12KPIMTextEdit9TextUtils8flowTextER7QStringRKS1_i@Base 15.07.90
 _ZNK12KPIMTextEdit15HtmlHighlighter10metaObjectEv@Base 15.07.90
 _ZNK12KPIMTextEdit15TableActionMenu10listActionEv@Base 15.07.90
 _ZNK12KPIMTextEdit15TableActionMenu10metaObjectEv@Base 15.07.90
 _ZNK12KPIMTextEdit16InsertHtmlDialog10metaObjectEv@Base 15.07.90
 _ZNK12KPIMTextEdit16InsertHtmlDialog4htmlEv@Base 15.07.90
 _ZNK12KPIMTextEdit17InsertImageDialog10imageWidthEv@Base 15.07.90
 _ZNK12KPIMTextEdit17InsertImageDialog10metaObjectEv@Base 15.07.90
 _ZNK12KPIMTextEdit17InsertImageDialog11imageHeightEv@Base 15.07.90
 _ZNK12KPIMTextEdit17InsertImageDialog16keepOriginalSizeEv@Base 15.07.90
 _ZNK12KPIMTextEdit17InsertImageDialog8imageUrlEv@Base 15.07.90
 _ZNK12KPIMTextEdit17InsertImageWidget10imageWidthEv@Base 15.07.90
 _ZNK12KPIMTextEdit17InsertImageWidget10metaObjectEv@Base 15.07.90
 _ZNK12KPIMTextEdit17InsertImageWidget11imageHeightEv@Base 15.07.90
 _ZNK12KPIMTextEdit17InsertImageWidget16keepOriginalSizeEv@Base 15.07.90
 _ZNK12KPIMTextEdit17InsertImageWidget8imageUrlEv@Base 15.07.90
 _ZNK12KPIMTextEdit17InsertTableDialog12typeOfLengthEv@Base 15.07.90
 _ZNK12KPIMTextEdit17InsertTableDialog4rowsEv@Base 15.07.90
 _ZNK12KPIMTextEdit17InsertTableDialog6borderEv@Base 15.07.90
 _ZNK12KPIMTextEdit17InsertTableDialog6lengthEv@Base 15.07.90
 _ZNK12KPIMTextEdit17InsertTableDialog7columnsEv@Base 15.07.90
 _ZNK12KPIMTextEdit17InsertTableWidget10metaObjectEv@Base 15.07.90
 _ZNK12KPIMTextEdit17InsertTableWidget12typeOfLengthEv@Base 15.07.90
 _ZNK12KPIMTextEdit17InsertTableWidget4rowsEv@Base 15.07.90
 _ZNK12KPIMTextEdit17InsertTableWidget6borderEv@Base 15.07.90
 _ZNK12KPIMTextEdit17InsertTableWidget6lengthEv@Base 15.07.90
 _ZNK12KPIMTextEdit17InsertTableWidget7columnsEv@Base 15.07.90
 _ZNK12KPIMTextEdit17TableFormatDialog12typeOfLengthEv@Base 15.07.90
 _ZNK12KPIMTextEdit17TableFormatDialog18useBackgroundColorEv@Base 15.07.90
 _ZNK12KPIMTextEdit17TableFormatDialog20tableBackgroundColorEv@Base 15.07.90
 _ZNK12KPIMTextEdit17TableFormatDialog4rowsEv@Base 15.07.90
 _ZNK12KPIMTextEdit17TableFormatDialog6borderEv@Base 15.07.90
 _ZNK12KPIMTextEdit17TableFormatDialog6lengthEv@Base 15.07.90
 _ZNK12KPIMTextEdit17TableFormatDialog7columnsEv@Base 15.07.90
 _ZNK12KPIMTextEdit17TableFormatDialog7paddingEv@Base 15.07.90
 _ZNK12KPIMTextEdit17TableFormatDialog7spacingEv@Base 15.07.90
 _ZNK12KPIMTextEdit17TableFormatDialog9alignmentEv@Base 15.07.90
 _ZNK12KPIMTextEdit19EmailQuoteDecorator30isSpellCheckingEnabledForBlockERK7QString@Base 15.07.90
 _ZNK12KPIMTextEdit19TextEditorCompleter10metaObjectEv@Base 15.07.90
 _ZNK12KPIMTextEdit19TextEditorCompleter26TextEditorCompleterPrivate15wordUnderCursorEv@Base 15.07.90
 _ZNK12KPIMTextEdit19TextEditorCompleter9completerEv@Base 15.07.90
 _ZNK12KPIMTextEdit21SyntaxHighlighterBase10metaObjectEv@Base 15.07.90
 _ZNK12KPIMTextEdit21TableCellFormatDialog17verticalAlignmentEv@Base 15.07.90
 _ZNK12KPIMTextEdit21TableCellFormatDialog18useBackgroundColorEv@Base 15.07.90
 _ZNK12KPIMTextEdit21TableCellFormatDialog24tableCellBackgroundColorEv@Base 15.07.90
 _ZNK12KPIMTextEdit22EmoticonTextEditAction10metaObjectEv@Base 15.07.90
 _ZNK12KPIMTextEdit23SelectSpecialCharDialog10metaObjectEv@Base 15.07.90
 _ZNK12KPIMTextEdit23SelectSpecialCharDialog11currentCharEv@Base 15.07.90
 _ZNK12KPIMTextEdit8TextEdit10configFileEv@Base 15.07.90
 _ZNK12KPIMTextEdit8TextEdit10metaObjectEv@Base 15.07.90
 _ZNK12KPIMTextEdit8TextEdit11quoteLengthERK7QString@Base 15.07.90
 _ZNK12KPIMTextEdit8TextEdit12isLineQuotedERK7QString@Base 15.07.90
 _ZNK12KPIMTextEdit8TextEdit14embeddedImagesEv@Base 15.07.90
 _ZNK12KPIMTextEdit8TextEdit14imagesWithNameEv@Base 15.07.90
 _ZNK12KPIMTextEdit8TextEdit16defaultQuoteSignEv@Base 15.07.90
 _ZNK12KPIMTextEdit8TextEdit16isFormattingUsedEv@Base 15.07.90
 _ZNK12KPIMTextEdit8TextEdit16toCleanPlainTextERK7QString@Base 15.07.90
 _ZNK12KPIMTextEdit8TextEdit18toWrappedPlainTextEP13QTextDocument@Base 15.07.90
 _ZNK12KPIMTextEdit8TextEdit18toWrappedPlainTextEv@Base 15.07.90
 _ZNK12KPIMTextEdit8TextEdit20checkSpellingEnabledEv@Base 15.07.90
 _ZNK12KPIMTextEdit8TextEdit20isEnableImageActionsEv@Base 15.07.90
 _ZNK12KPIMTextEdit8TextEdit21canInsertFromMimeDataEPK9QMimeData@Base 15.07.90
 _ZNK12KPIMTextEdit8TextEdit23isEnableEmoticonActionsEv@Base 15.07.90
 _ZNK12KPIMTextEdit8TextEdit25isEnableInsertHtmlActionsEv@Base 15.07.90
 _ZNK12KPIMTextEdit8TextEdit25shouldBlockBeSpellCheckedERK7QString@Base 15.07.90
 _ZNK12KPIMTextEdit8TextEdit26isEnableInsertTableActionsEv@Base 15.07.90
 _ZTIN12KPIMTextEdit15HtmlHighlighterE@Base 15.07.90
 _ZTIN12KPIMTextEdit15TableActionMenuE@Base 15.07.90
 _ZTIN12KPIMTextEdit16InsertHtmlDialogE@Base 15.07.90
 _ZTIN12KPIMTextEdit17InsertImageDialogE@Base 15.07.90
 _ZTIN12KPIMTextEdit17InsertImageWidgetE@Base 15.07.90
 _ZTIN12KPIMTextEdit17InsertTableDialogE@Base 15.07.90
 _ZTIN12KPIMTextEdit17InsertTableWidgetE@Base 15.07.90
 _ZTIN12KPIMTextEdit17TableFormatDialogE@Base 15.07.90
 _ZTIN12KPIMTextEdit19EmailQuoteDecoratorE@Base 15.07.90
 _ZTIN12KPIMTextEdit19TextEditorCompleterE@Base 15.07.90
 _ZTIN12KPIMTextEdit21EMailQuoteHighlighterE@Base 15.07.90
 _ZTIN12KPIMTextEdit21SyntaxHighlighterBaseE@Base 15.07.90
 _ZTIN12KPIMTextEdit21TableCellFormatDialogE@Base 15.07.90
 _ZTIN12KPIMTextEdit22EmoticonTextEditActionE@Base 15.07.90
 _ZTIN12KPIMTextEdit23SelectSpecialCharDialogE@Base 15.07.90
 _ZTIN12KPIMTextEdit8TextEditE@Base 15.07.90
 _ZTSN12KPIMTextEdit15HtmlHighlighterE@Base 15.07.90
 _ZTSN12KPIMTextEdit15TableActionMenuE@Base 15.07.90
 _ZTSN12KPIMTextEdit16InsertHtmlDialogE@Base 15.07.90
 _ZTSN12KPIMTextEdit17InsertImageDialogE@Base 15.07.90
 _ZTSN12KPIMTextEdit17InsertImageWidgetE@Base 15.07.90
 _ZTSN12KPIMTextEdit17InsertTableDialogE@Base 15.07.90
 _ZTSN12KPIMTextEdit17InsertTableWidgetE@Base 15.07.90
 _ZTSN12KPIMTextEdit17TableFormatDialogE@Base 15.07.90
 _ZTSN12KPIMTextEdit19EmailQuoteDecoratorE@Base 15.07.90
 _ZTSN12KPIMTextEdit19TextEditorCompleterE@Base 15.07.90
 _ZTSN12KPIMTextEdit21EMailQuoteHighlighterE@Base 15.07.90
 _ZTSN12KPIMTextEdit21SyntaxHighlighterBaseE@Base 15.07.90
 _ZTSN12KPIMTextEdit21TableCellFormatDialogE@Base 15.07.90
 _ZTSN12KPIMTextEdit22EmoticonTextEditActionE@Base 15.07.90
 _ZTSN12KPIMTextEdit23SelectSpecialCharDialogE@Base 15.07.90
 _ZTSN12KPIMTextEdit8TextEditE@Base 15.07.90
 _ZTVN12KPIMTextEdit15HtmlHighlighterE@Base 15.07.90
 _ZTVN12KPIMTextEdit15TableActionMenuE@Base 15.07.90
 _ZTVN12KPIMTextEdit16InsertHtmlDialogE@Base 15.07.90
 _ZTVN12KPIMTextEdit17InsertImageDialogE@Base 15.07.90
 _ZTVN12KPIMTextEdit17InsertImageWidgetE@Base 15.07.90
 _ZTVN12KPIMTextEdit17InsertTableDialogE@Base 15.07.90
 _ZTVN12KPIMTextEdit17InsertTableWidgetE@Base 15.07.90
 _ZTVN12KPIMTextEdit17TableFormatDialogE@Base 15.07.90
 _ZTVN12KPIMTextEdit19EmailQuoteDecoratorE@Base 15.07.90
 _ZTVN12KPIMTextEdit19TextEditorCompleterE@Base 15.07.90
 _ZTVN12KPIMTextEdit21EMailQuoteHighlighterE@Base 15.07.90
 _ZTVN12KPIMTextEdit21SyntaxHighlighterBaseE@Base 15.07.90
 _ZTVN12KPIMTextEdit21TableCellFormatDialogE@Base 15.07.90
 _ZTVN12KPIMTextEdit22EmoticonTextEditActionE@Base 15.07.90
 _ZTVN12KPIMTextEdit23SelectSpecialCharDialogE@Base 15.07.90
 _ZTVN12KPIMTextEdit8TextEditE@Base 15.07.90
 (c++)"non-virtual thunk to KPIMTextEdit::InsertHtmlDialog::~InsertHtmlDialog()@Base" 15.07.90
 (c++)"non-virtual thunk to KPIMTextEdit::InsertImageDialog::~InsertImageDialog()@Base" 15.07.90
 (c++)"non-virtual thunk to KPIMTextEdit::InsertImageWidget::~InsertImageWidget()@Base" 15.07.90
 (c++)"non-virtual thunk to KPIMTextEdit::InsertTableDialog::~InsertTableDialog()@Base" 15.07.90
 (c++)"non-virtual thunk to KPIMTextEdit::InsertTableWidget::~InsertTableWidget()@Base" 15.07.90
 (c++)"non-virtual thunk to KPIMTextEdit::SelectSpecialCharDialog::~SelectSpecialCharDialog()@Base" 15.07.90
 (c++)"non-virtual thunk to KPIMTextEdit::TableCellFormatDialog::~TableCellFormatDialog()@Base" 15.07.90
 (c++)"non-virtual thunk to KPIMTextEdit::TableFormatDialog::~TableFormatDialog()@Base" 15.07.90
 (c++)"non-virtual thunk to KPIMTextEdit::TextEdit::~TextEdit()@Base" 15.07.90
